GAS LISTING /tmp/cch46yGY.s 			page 1


   1              		.file	"BoundedBuffer.cpp"
   2              		.option pic
   3              		.option norelax
   4              		.text
   5              	.Ltext0:
   6              		.align	2
   7              		.globl	_ZN13BoundedBufferC2Ev
   9              	_ZN13BoundedBufferC2Ev:
  10              	.LFB12:
  11              		.file 1 "src/BoundedBuffer.cpp"
   1:src/BoundedBuffer.cpp **** //
   2:src/BoundedBuffer.cpp **** // Created by os on 6/1/22.
   3:src/BoundedBuffer.cpp **** //
   4:src/BoundedBuffer.cpp **** 
   5:src/BoundedBuffer.cpp **** #include "../h/BoundedBuffer.hpp"
   6:src/BoundedBuffer.cpp **** 
   7:src/BoundedBuffer.cpp **** BoundedBuffer::BoundedBuffer() {
  12              		.loc 1 7 1
  13              		.cfi_startproc
  14              	.LVL0:
  15 0000 130101FE 		addi	sp,sp,-32
  16              		.cfi_def_cfa_offset 32
  17 0004 233C1100 		sd	ra,24(sp)
  18 0008 23388100 		sd	s0,16(sp)
  19 000c 23349100 		sd	s1,8(sp)
  20 0010 23302101 		sd	s2,0(sp)
  21              		.cfi_offset 1, -8
  22              		.cfi_offset 8, -16
  23              		.cfi_offset 9, -24
  24              		.cfi_offset 18, -32
  25 0014 13040102 		addi	s0,sp,32
  26              		.cfi_def_cfa 8, 0
  27 0018 93040500 		mv	s1,a0
  28              	.LBB12:
   8:src/BoundedBuffer.cpp ****     mutex = new SemaphoreK(1);
  29              		.loc 1 8 5
  30              		.loc 1 8 29 is_stmt 0
  31 001c 13050002 		li	a0,32
  32              	.LVL1:
  33 0020 97000000 		call	_ZN10SemaphoreKnwEm@plt
  33      E7800000 
  34              	.LVL2:
  35              	.LBB13:
  36              	.LBB14:
  37              		.file 2 "src/../h/../h/SemaphoreK.hpp"
   1:src/../h/../h/SemaphoreK.hpp **** //
   2:src/../h/../h/SemaphoreK.hpp **** // Created by os on 5/22/22.
   3:src/../h/../h/SemaphoreK.hpp **** //
   4:src/../h/../h/SemaphoreK.hpp **** 
   5:src/../h/../h/SemaphoreK.hpp **** #ifndef PROJECT_BASE_V1_0_SEMAPHORE_HPP
   6:src/../h/../h/SemaphoreK.hpp **** #define PROJECT_BASE_V1_0_SEMAPHORE_HPP
   7:src/../h/../h/SemaphoreK.hpp **** 
   8:src/../h/../h/SemaphoreK.hpp **** #include "../h/ThreadK.hpp"
   9:src/../h/../h/SemaphoreK.hpp **** 
  10:src/../h/../h/SemaphoreK.hpp **** class SemaphoreK {
  11:src/../h/../h/SemaphoreK.hpp **** public:
  12:src/../h/../h/SemaphoreK.hpp ****     SemaphoreK(int val = 1): value(val){}
GAS LISTING /tmp/cch46yGY.s 			page 2


  38              		.loc 2 12 39
  39 0028 17090000 		la	s2,_ZTV10SemaphoreK
  39      03390900 
  40 0030 13090901 		addi	s2,s2,16
  41 0034 23302501 		sd	s2,0(a0)
  42 0038 93071000 		li	a5,1
  43 003c 2324F500 		sw	a5,8(a0)
  44 0040 23380500 		sd	zero,16(a0)
  45 0044 233C0500 		sd	zero,24(a0)
  46              	.LVL3:
  47              	.LBE14:
  48              	.LBE13:
  49              		.loc 1 8 11
  50 0048 23B4A400 		sd	a0,8(s1)
   9:src/BoundedBuffer.cpp ****     spaceAvailable = new SemaphoreK(N);
  51              		.loc 1 9 5 is_stmt 1
  52              		.loc 1 9 38 is_stmt 0
  53 004c 13050002 		li	a0,32
  54 0050 97000000 		call	_ZN10SemaphoreKnwEm@plt
  54      E7800000 
  55              	.LVL4:
  56              	.LBB15:
  57              	.LBB16:
  58              		.loc 2 12 39
  59 0058 23302501 		sd	s2,0(a0)
  60 005c 93070040 		li	a5,1024
  61 0060 2324F500 		sw	a5,8(a0)
  62 0064 23380500 		sd	zero,16(a0)
  63 0068 233C0500 		sd	zero,24(a0)
  64              	.LVL5:
  65              	.LBE16:
  66              	.LBE15:
  67              		.loc 1 9 20
  68 006c 23B8A400 		sd	a0,16(s1)
  10:src/BoundedBuffer.cpp ****     itemAvailable = new SemaphoreK(0);
  69              		.loc 1 10 5 is_stmt 1
  70              		.loc 1 10 37 is_stmt 0
  71 0070 13050002 		li	a0,32
  72 0074 97000000 		call	_ZN10SemaphoreKnwEm@plt
  72      E7800000 
  73              	.LVL6:
  74              	.LBB17:
  75              	.LBB18:
  76              		.loc 2 12 39
  77 007c 23302501 		sd	s2,0(a0)
  78 0080 23240500 		sw	zero,8(a0)
  79 0084 23380500 		sd	zero,16(a0)
  80 0088 233C0500 		sd	zero,24(a0)
  81              	.LVL7:
  82              	.LBE18:
  83              	.LBE17:
  84              		.loc 1 10 19
  85 008c 23BCA400 		sd	a0,24(s1)
  11:src/BoundedBuffer.cpp ****     head = tail =  0;
  86              		.loc 1 11 5 is_stmt 1
  87              		.loc 1 11 17 is_stmt 0
  88 0090 23A60402 		sw	zero,44(s1)
GAS LISTING /tmp/cch46yGY.s 			page 3


  89              		.loc 1 11 10
  90 0094 23A40402 		sw	zero,40(s1)
  12:src/BoundedBuffer.cpp ****     occ =0;
  91              		.loc 1 12 5 is_stmt 1
  92              		.loc 1 12 9 is_stmt 0
  93 0098 23B00400 		sd	zero,0(s1)
  13:src/BoundedBuffer.cpp ****     buffer = (char*) MemoryAllocator::kmem_alloc(N * sizeof(char));
  94              		.loc 1 13 5 is_stmt 1
  95              		.loc 1 13 49 is_stmt 0
  96 009c 13050040 		li	a0,1024
  97 00a0 97000000 		call	_ZN15MemoryAllocator10kmem_allocEm@plt
  97      E7800000 
  98              	.LVL8:
  99              		.loc 1 13 12
 100 00a8 23B0A402 		sd	a0,32(s1)
 101              	.LBE12:
  14:src/BoundedBuffer.cpp **** }
 102              		.loc 1 14 1
 103 00ac 83308101 		ld	ra,24(sp)
 104              		.cfi_restore 1
 105 00b0 03340101 		ld	s0,16(sp)
 106              		.cfi_restore 8
 107              		.cfi_def_cfa 2, 32
 108 00b4 83348100 		ld	s1,8(sp)
 109              		.cfi_restore 9
 110              	.LVL9:
 111 00b8 03390100 		ld	s2,0(sp)
 112              		.cfi_restore 18
 113 00bc 13010102 		addi	sp,sp,32
 114              		.cfi_def_cfa_offset 0
 115 00c0 67800000 		jr	ra
 116              		.cfi_endproc
 117              	.LFE12:
 119              		.globl	_ZN13BoundedBufferC1Ev
 120              		.set	_ZN13BoundedBufferC1Ev,_ZN13BoundedBufferC2Ev
 121              		.align	2
 122              		.globl	_ZN13BoundedBuffer6appendEc
 124              	_ZN13BoundedBuffer6appendEc:
 125              	.LFB14:
  15:src/BoundedBuffer.cpp **** 
  16:src/BoundedBuffer.cpp **** void BoundedBuffer::append(char c) {
 126              		.loc 1 16 36 is_stmt 1
 127              		.cfi_startproc
 128              	.LVL10:
 129 00c4 130101FE 		addi	sp,sp,-32
 130              		.cfi_def_cfa_offset 32
 131 00c8 233C1100 		sd	ra,24(sp)
 132 00cc 23388100 		sd	s0,16(sp)
 133 00d0 23349100 		sd	s1,8(sp)
 134 00d4 23302101 		sd	s2,0(sp)
 135              		.cfi_offset 1, -8
 136              		.cfi_offset 8, -16
 137              		.cfi_offset 9, -24
 138              		.cfi_offset 18, -32
 139 00d8 13040102 		addi	s0,sp,32
 140              		.cfi_def_cfa 8, 0
 141 00dc 93040500 		mv	s1,a0
GAS LISTING /tmp/cch46yGY.s 			page 4


 142 00e0 13890500 		mv	s2,a1
  17:src/BoundedBuffer.cpp ****     spaceAvailable->wait();
 143              		.loc 1 17 5
 144 00e4 03350501 		ld	a0,16(a0)
 145              	.LVL11:
 146              		.loc 1 17 26 is_stmt 0
 147 00e8 83370500 		ld	a5,0(a0)
 148 00ec 83B70701 		ld	a5,16(a5)
 149              		.loc 1 17 25
 150 00f0 E7800700 		jalr	a5
 151              	.LVL12:
  18:src/BoundedBuffer.cpp ****     mutex->wait();
 152              		.loc 1 18 5 is_stmt 1
 153 00f4 03B58400 		ld	a0,8(s1)
 154              		.loc 1 18 17 is_stmt 0
 155 00f8 83370500 		ld	a5,0(a0)
 156 00fc 83B70701 		ld	a5,16(a5)
 157              		.loc 1 18 16
 158 0100 E7800700 		jalr	a5
 159              	.LVL13:
  19:src/BoundedBuffer.cpp ****     if(occ < N) {
 160              		.loc 1 19 5 is_stmt 1
 161              		.loc 1 19 8 is_stmt 0
 162 0104 03B70400 		ld	a4,0(s1)
 163              		.loc 1 19 5
 164 0108 9307F03F 		li	a5,1023
 165 010c 63E8E702 		bgtu	a4,a5,.L4
  20:src/BoundedBuffer.cpp ****         buffer[tail] = c;
 166              		.loc 1 20 9 is_stmt 1
 167 0110 83B70402 		ld	a5,32(s1)
 168              		.loc 1 20 16 is_stmt 0
 169 0114 03A7C402 		lw	a4,44(s1)
 170              		.loc 1 20 20
 171 0118 B387E700 		add	a5,a5,a4
 172              		.loc 1 20 22
 173 011c 23802701 		sb	s2,0(a5)
  21:src/BoundedBuffer.cpp ****         tail = (tail + 1) % N;
 174              		.loc 1 21 9 is_stmt 1
 175              		.loc 1 21 17 is_stmt 0
 176 0120 83A7C402 		lw	a5,44(s1)
 177              		.loc 1 21 22
 178 0124 9B871700 		addiw	a5,a5,1
 179              		.loc 1 21 27
 180 0128 93F7F73F 		andi	a5,a5,1023
 181              		.loc 1 21 14
 182 012c 23A6F402 		sw	a5,44(s1)
  22:src/BoundedBuffer.cpp ****         occ++;
 183              		.loc 1 22 9 is_stmt 1
 184 0130 83B70400 		ld	a5,0(s1)
 185              		.loc 1 22 12 is_stmt 0
 186 0134 93871700 		addi	a5,a5,1
 187 0138 23B0F400 		sd	a5,0(s1)
 188              	.L4:
  23:src/BoundedBuffer.cpp ****     }
  24:src/BoundedBuffer.cpp ****     mutex->signal();
 189              		.loc 1 24 5 is_stmt 1
 190 013c 03B58400 		ld	a0,8(s1)
GAS LISTING /tmp/cch46yGY.s 			page 5


 191              		.loc 1 24 19 is_stmt 0
 192 0140 83370500 		ld	a5,0(a0)
 193 0144 83B78701 		ld	a5,24(a5)
 194              		.loc 1 24 18
 195 0148 E7800700 		jalr	a5
 196              	.LVL14:
  25:src/BoundedBuffer.cpp ****     if(occ < N) {
 197              		.loc 1 25 5 is_stmt 1
 198              		.loc 1 25 8 is_stmt 0
 199 014c 03B70400 		ld	a4,0(s1)
 200              		.loc 1 25 5
 201 0150 9307F03F 		li	a5,1023
 202 0154 63EAE700 		bgtu	a4,a5,.L3
  26:src/BoundedBuffer.cpp ****         itemAvailable->signal();
 203              		.loc 1 26 9 is_stmt 1
 204 0158 03B58401 		ld	a0,24(s1)
 205              		.loc 1 26 31 is_stmt 0
 206 015c 83370500 		ld	a5,0(a0)
 207 0160 83B78701 		ld	a5,24(a5)
 208              		.loc 1 26 30
 209 0164 E7800700 		jalr	a5
 210              	.LVL15:
 211              	.L3:
  27:src/BoundedBuffer.cpp ****     }
  28:src/BoundedBuffer.cpp **** }
 212              		.loc 1 28 1
 213 0168 83308101 		ld	ra,24(sp)
 214              		.cfi_restore 1
 215 016c 03340101 		ld	s0,16(sp)
 216              		.cfi_restore 8
 217              		.cfi_def_cfa 2, 32
 218 0170 83348100 		ld	s1,8(sp)
 219              		.cfi_restore 9
 220              	.LVL16:
 221 0174 03390100 		ld	s2,0(sp)
 222              		.cfi_restore 18
 223 0178 13010102 		addi	sp,sp,32
 224              		.cfi_def_cfa_offset 0
 225 017c 67800000 		jr	ra
 226              		.cfi_endproc
 227              	.LFE14:
 229              		.align	2
 230              		.globl	_ZN13BoundedBuffer4takeEv
 232              	_ZN13BoundedBuffer4takeEv:
 233              	.LFB15:
  29:src/BoundedBuffer.cpp **** 
  30:src/BoundedBuffer.cpp **** char BoundedBuffer::take() {
 234              		.loc 1 30 28 is_stmt 1
 235              		.cfi_startproc
 236              	.LVL17:
 237 0180 130101FE 		addi	sp,sp,-32
 238              		.cfi_def_cfa_offset 32
 239 0184 233C1100 		sd	ra,24(sp)
 240 0188 23388100 		sd	s0,16(sp)
 241 018c 23349100 		sd	s1,8(sp)
 242 0190 23302101 		sd	s2,0(sp)
 243              		.cfi_offset 1, -8
GAS LISTING /tmp/cch46yGY.s 			page 6


 244              		.cfi_offset 8, -16
 245              		.cfi_offset 9, -24
 246              		.cfi_offset 18, -32
 247 0194 13040102 		addi	s0,sp,32
 248              		.cfi_def_cfa 8, 0
 249 0198 93040500 		mv	s1,a0
  31:src/BoundedBuffer.cpp ****     itemAvailable->wait();
 250              		.loc 1 31 5
 251 019c 03358501 		ld	a0,24(a0)
 252              	.LVL18:
 253              		.loc 1 31 25 is_stmt 0
 254 01a0 83370500 		ld	a5,0(a0)
 255 01a4 83B70701 		ld	a5,16(a5)
 256              		.loc 1 31 24
 257 01a8 E7800700 		jalr	a5
 258              	.LVL19:
  32:src/BoundedBuffer.cpp ****     mutex->wait();
 259              		.loc 1 32 5 is_stmt 1
 260 01ac 03B58400 		ld	a0,8(s1)
 261              		.loc 1 32 17 is_stmt 0
 262 01b0 83370500 		ld	a5,0(a0)
 263 01b4 83B70701 		ld	a5,16(a5)
 264              		.loc 1 32 16
 265 01b8 E7800700 		jalr	a5
 266              	.LVL20:
  33:src/BoundedBuffer.cpp ****     char c = buffer[head];
 267              		.loc 1 33 5 is_stmt 1
 268              		.loc 1 33 14 is_stmt 0
 269 01bc 03B70402 		ld	a4,32(s1)
 270              		.loc 1 33 21
 271 01c0 83A78402 		lw	a5,40(s1)
 272              		.loc 1 33 25
 273 01c4 3307F700 		add	a4,a4,a5
 274              		.loc 1 33 10
 275 01c8 03490700 		lbu	s2,0(a4)
 276              	.LVL21:
  34:src/BoundedBuffer.cpp ****     head = (head+1)%N;
 277              		.loc 1 34 5 is_stmt 1
 278              		.loc 1 34 17 is_stmt 0
 279 01cc 9B871700 		addiw	a5,a5,1
 280              		.loc 1 34 20
 281 01d0 93F7F73F 		andi	a5,a5,1023
 282              		.loc 1 34 10
 283 01d4 23A4F402 		sw	a5,40(s1)
  35:src/BoundedBuffer.cpp ****     occ--;
 284              		.loc 1 35 5 is_stmt 1
 285 01d8 83B70400 		ld	a5,0(s1)
 286              		.loc 1 35 8 is_stmt 0
 287 01dc 9387F7FF 		addi	a5,a5,-1
 288 01e0 23B0F400 		sd	a5,0(s1)
  36:src/BoundedBuffer.cpp ****     mutex->signal();
 289              		.loc 1 36 5 is_stmt 1
 290 01e4 03B58400 		ld	a0,8(s1)
 291              		.loc 1 36 19 is_stmt 0
 292 01e8 83370500 		ld	a5,0(a0)
 293 01ec 83B78701 		ld	a5,24(a5)
 294              		.loc 1 36 18
GAS LISTING /tmp/cch46yGY.s 			page 7


 295 01f0 E7800700 		jalr	a5
 296              	.LVL22:
  37:src/BoundedBuffer.cpp ****     spaceAvailable->signal();
 297              		.loc 1 37 5 is_stmt 1
 298 01f4 03B50401 		ld	a0,16(s1)
 299              		.loc 1 37 28 is_stmt 0
 300 01f8 83370500 		ld	a5,0(a0)
 301 01fc 83B78701 		ld	a5,24(a5)
 302              		.loc 1 37 27
 303 0200 E7800700 		jalr	a5
 304              	.LVL23:
  38:src/BoundedBuffer.cpp ****     return c;
 305              		.loc 1 38 5 is_stmt 1
  39:src/BoundedBuffer.cpp **** }
 306              		.loc 1 39 1 is_stmt 0
 307 0204 13050900 		mv	a0,s2
 308 0208 83308101 		ld	ra,24(sp)
 309              		.cfi_restore 1
 310 020c 03340101 		ld	s0,16(sp)
 311              		.cfi_restore 8
 312              		.cfi_def_cfa 2, 32
 313 0210 83348100 		ld	s1,8(sp)
 314              		.cfi_restore 9
 315              	.LVL24:
 316 0214 03390100 		ld	s2,0(sp)
 317              		.cfi_restore 18
 318              	.LVL25:
 319 0218 13010102 		addi	sp,sp,32
 320              		.cfi_def_cfa_offset 0
 321 021c 67800000 		jr	ra
 322              		.cfi_endproc
 323              	.LFE15:
 325              		.align	2
 326              		.globl	_ZN13BoundedBuffernwEm
 328              	_ZN13BoundedBuffernwEm:
 329              	.LFB16:
  40:src/BoundedBuffer.cpp **** void *BoundedBuffer::operator new(size_t size) {
 330              		.loc 1 40 48 is_stmt 1
 331              		.cfi_startproc
 332              	.LVL26:
 333 0220 130101FF 		addi	sp,sp,-16
 334              		.cfi_def_cfa_offset 16
 335 0224 23341100 		sd	ra,8(sp)
 336 0228 23308100 		sd	s0,0(sp)
 337              		.cfi_offset 1, -8
 338              		.cfi_offset 8, -16
 339 022c 13040101 		addi	s0,sp,16
 340              		.cfi_def_cfa 8, 0
  41:src/BoundedBuffer.cpp ****     return MemoryAllocator::kmem_alloc(size);
 341              		.loc 1 41 5
 342              		.loc 1 41 39 is_stmt 0
 343 0230 97000000 		call	_ZN15MemoryAllocator10kmem_allocEm@plt
 343      E7800000 
 344              	.LVL27:
  42:src/BoundedBuffer.cpp **** }
 345              		.loc 1 42 1
 346 0238 83308100 		ld	ra,8(sp)
GAS LISTING /tmp/cch46yGY.s 			page 8


 347              		.cfi_restore 1
 348 023c 03340100 		ld	s0,0(sp)
 349              		.cfi_restore 8
 350              		.cfi_def_cfa 2, 16
 351 0240 13010101 		addi	sp,sp,16
 352              		.cfi_def_cfa_offset 0
 353 0244 67800000 		jr	ra
 354              		.cfi_endproc
 355              	.LFE16:
 357              		.align	2
 358              		.globl	_ZN13BoundedBufferdlEPv
 360              	_ZN13BoundedBufferdlEPv:
 361              	.LFB17:
  43:src/BoundedBuffer.cpp **** 
  44:src/BoundedBuffer.cpp **** 
  45:src/BoundedBuffer.cpp **** void BoundedBuffer::operator delete(void *p) {
 362              		.loc 1 45 46 is_stmt 1
 363              		.cfi_startproc
 364              	.LVL28:
 365 0248 130101FF 		addi	sp,sp,-16
 366              		.cfi_def_cfa_offset 16
 367 024c 23341100 		sd	ra,8(sp)
 368 0250 23308100 		sd	s0,0(sp)
 369              		.cfi_offset 1, -8
 370              		.cfi_offset 8, -16
 371 0254 13040101 		addi	s0,sp,16
 372              		.cfi_def_cfa 8, 0
  46:src/BoundedBuffer.cpp ****     MemoryAllocator::kmem_free(p);
 373              		.loc 1 46 5
 374              		.loc 1 46 31 is_stmt 0
 375 0258 97000000 		call	_ZN15MemoryAllocator9kmem_freeEPv@plt
 375      E7800000 
 376              	.LVL29:
  47:src/BoundedBuffer.cpp **** }
 377              		.loc 1 47 1
 378 0260 83308100 		ld	ra,8(sp)
 379              		.cfi_restore 1
 380 0264 03340100 		ld	s0,0(sp)
 381              		.cfi_restore 8
 382              		.cfi_def_cfa 2, 16
 383 0268 13010101 		addi	sp,sp,16
 384              		.cfi_def_cfa_offset 0
 385 026c 67800000 		jr	ra
 386              		.cfi_endproc
 387              	.LFE17:
 389              		.align	2
 390              		.globl	_ZN13BoundedBuffernaEm
 392              	_ZN13BoundedBuffernaEm:
 393              	.LFB18:
  48:src/BoundedBuffer.cpp **** 
  49:src/BoundedBuffer.cpp **** void *BoundedBuffer::operator new[](size_t size) {
 394              		.loc 1 49 50 is_stmt 1
 395              		.cfi_startproc
 396              	.LVL30:
 397 0270 130101FF 		addi	sp,sp,-16
 398              		.cfi_def_cfa_offset 16
 399 0274 23341100 		sd	ra,8(sp)
GAS LISTING /tmp/cch46yGY.s 			page 9


 400 0278 23308100 		sd	s0,0(sp)
 401              		.cfi_offset 1, -8
 402              		.cfi_offset 8, -16
 403 027c 13040101 		addi	s0,sp,16
 404              		.cfi_def_cfa 8, 0
  50:src/BoundedBuffer.cpp ****     return MemoryAllocator::kmem_alloc(size);
 405              		.loc 1 50 5
 406              		.loc 1 50 39 is_stmt 0
 407 0280 97000000 		call	_ZN15MemoryAllocator10kmem_allocEm@plt
 407      E7800000 
 408              	.LVL31:
  51:src/BoundedBuffer.cpp **** }
 409              		.loc 1 51 1
 410 0288 83308100 		ld	ra,8(sp)
 411              		.cfi_restore 1
 412 028c 03340100 		ld	s0,0(sp)
 413              		.cfi_restore 8
 414              		.cfi_def_cfa 2, 16
 415 0290 13010101 		addi	sp,sp,16
 416              		.cfi_def_cfa_offset 0
 417 0294 67800000 		jr	ra
 418              		.cfi_endproc
 419              	.LFE18:
 421              		.align	2
 422              		.globl	_ZN13BoundedBufferdaEPv
 424              	_ZN13BoundedBufferdaEPv:
 425              	.LFB19:
  52:src/BoundedBuffer.cpp **** 
  53:src/BoundedBuffer.cpp **** 
  54:src/BoundedBuffer.cpp **** void BoundedBuffer::operator delete[](void *p) {
 426              		.loc 1 54 48 is_stmt 1
 427              		.cfi_startproc
 428              	.LVL32:
 429 0298 130101FF 		addi	sp,sp,-16
 430              		.cfi_def_cfa_offset 16
 431 029c 23341100 		sd	ra,8(sp)
 432 02a0 23308100 		sd	s0,0(sp)
 433              		.cfi_offset 1, -8
 434              		.cfi_offset 8, -16
 435 02a4 13040101 		addi	s0,sp,16
 436              		.cfi_def_cfa 8, 0
  55:src/BoundedBuffer.cpp ****     MemoryAllocator::kmem_free(p);
 437              		.loc 1 55 5
 438              		.loc 1 55 31 is_stmt 0
 439 02a8 97000000 		call	_ZN15MemoryAllocator9kmem_freeEPv@plt
 439      E7800000 
 440              	.LVL33:
  56:src/BoundedBuffer.cpp **** }...
 441              		.loc 1 56 1
 442 02b0 83308100 		ld	ra,8(sp)
 443              		.cfi_restore 1
 444 02b4 03340100 		ld	s0,0(sp)
 445              		.cfi_restore 8
 446              		.cfi_def_cfa 2, 16
 447 02b8 13010101 		addi	sp,sp,16
 448              		.cfi_def_cfa_offset 0
 449 02bc 67800000 		jr	ra
GAS LISTING /tmp/cch46yGY.s 			page 10


 450              		.cfi_endproc
 451              	.LFE19:
 453              	.Letext0:
 454              		.file 3 "src/../h/../h/../h/../lib/hw.h"
 455              		.file 4 "src/../h/../h/../h/../h/../h/MemoryAllocator.hpp"
 456              		.file 5 "src/../h/../h/../h/../h/syscall_c.h"
 457              		.file 6 "src/../h/BoundedBuffer.hpp"
GAS LISTING /tmp/cch46yGY.s 			page 11

