GAS LISTING /tmp/cc4UBkCP.s 			page 1


   1              		.file	"Event.cpp"
   2              		.option pic
   3              		.option norelax
   4              		.text
   5              	.Ltext0:
   6              		.align	2
   7              		.globl	_ZN5Event4waitEv
   9              	_ZN5Event4waitEv:
  10              	.LFB11:
  11              		.file 1 "src/Event.cpp"
   1:src/Event.cpp **** //
   2:src/Event.cpp **** // Created by os on 6/19/22.
   3:src/Event.cpp **** //
   4:src/Event.cpp **** 
   5:src/Event.cpp **** #include "../h/Event.hpp"
   6:src/Event.cpp **** 
   7:src/Event.cpp **** Event::Event() {
   8:src/Event.cpp ****     SemaphoreK(0);
   9:src/Event.cpp **** }
  10:src/Event.cpp **** 
  11:src/Event.cpp **** int Event::wait() {
  12              		.loc 1 11 19
  13              		.cfi_startproc
  14              	.LVL0:
  12:src/Event.cpp ****     if(--value < 0){
  15              		.loc 1 12 5
  16              		.loc 1 12 10 is_stmt 0
  17 0000 83278500 		lw	a5,8(a0)
  18              		.loc 1 12 8
  19 0004 9B87F7FF 		addiw	a5,a5,-1
  20              		.loc 1 12 16
  21 0008 2324F500 		sw	a5,8(a0)
  22              		.loc 1 12 5
  23 000c 13970702 		slli	a4,a5,32
  24 0010 63460700 		bltz	a4,.L7
  13:src/Event.cpp ****         block();
  14:src/Event.cpp ****     }
  15:src/Event.cpp ****     return 0;
  25              		.loc 1 15 5 is_stmt 1
  16:src/Event.cpp **** }
  26              		.loc 1 16 1 is_stmt 0
  27 0014 13050000 		li	a0,0
  28              	.LVL1:
  29 0018 67800000 		ret
  30              	.LVL2:
  31              	.L7:
  11:src/Event.cpp ****     if(--value < 0){
  32              		.loc 1 11 19
  33 001c 130101FF 		addi	sp,sp,-16
  34              		.cfi_def_cfa_offset 16
  35 0020 23341100 		sd	ra,8(sp)
  36 0024 23308100 		sd	s0,0(sp)
  37              		.cfi_offset 1, -8
  38              		.cfi_offset 8, -16
  39 0028 13040101 		addi	s0,sp,16
  40              		.cfi_def_cfa 8, 0
  13:src/Event.cpp ****         block();
GAS LISTING /tmp/cc4UBkCP.s 			page 2


  41              		.loc 1 13 9 is_stmt 1
  13:src/Event.cpp ****         block();
  42              		.loc 1 13 14 is_stmt 0
  43 002c 97000000 		call	_ZN10SemaphoreK5blockEv@plt
  43      E7800000 
  44              	.LVL3:
  15:src/Event.cpp **** }
  45              		.loc 1 15 5 is_stmt 1
  46              		.loc 1 16 1 is_stmt 0
  47 0034 13050000 		li	a0,0
  48 0038 83308100 		ld	ra,8(sp)
  49              		.cfi_restore 1
  50 003c 03340100 		ld	s0,0(sp)
  51              		.cfi_restore 8
  52              		.cfi_def_cfa 2, 16
  53 0040 13010101 		addi	sp,sp,16
  54              		.cfi_def_cfa_offset 0
  55 0044 67800000 		jr	ra
  56              		.cfi_endproc
  57              	.LFE11:
  59              		.align	2
  60              		.globl	_ZN5Event6signalEv
  62              	_ZN5Event6signalEv:
  63              	.LFB12:
  17:src/Event.cpp **** 
  18:src/Event.cpp **** int Event::signal() {
  64              		.loc 1 18 21 is_stmt 1
  65              		.cfi_startproc
  66              	.LVL4:
  19:src/Event.cpp ****     if(++value<=0){
  67              		.loc 1 19 5
  68              		.loc 1 19 10 is_stmt 0
  69 0048 83278500 		lw	a5,8(a0)
  70              		.loc 1 19 8
  71 004c 9B871700 		addiw	a5,a5,1
  72 0050 1B870700 		sext.w	a4,a5
  73              		.loc 1 19 15
  74 0054 2324F500 		sw	a5,8(a0)
  75              		.loc 1 19 5
  76 0058 635AE000 		blez	a4,.L15
  20:src/Event.cpp ****         deblock();
  21:src/Event.cpp ****     }else{
  22:src/Event.cpp ****         value = 1;
  77              		.loc 1 22 9 is_stmt 1
  78              		.loc 1 22 15 is_stmt 0
  79 005c 93071000 		li	a5,1
  80 0060 2324F500 		sw	a5,8(a0)
  23:src/Event.cpp ****     }
  24:src/Event.cpp ****     return 0;
  81              		.loc 1 24 5 is_stmt 1
  25:src/Event.cpp **** }
  82              		.loc 1 25 1 is_stmt 0
  83 0064 13050000 		li	a0,0
  84              	.LVL5:
  85 0068 67800000 		ret
  86              	.LVL6:
  87              	.L15:
GAS LISTING /tmp/cc4UBkCP.s 			page 3


  18:src/Event.cpp ****     if(++value<=0){
  88              		.loc 1 18 21
  89 006c 130101FF 		addi	sp,sp,-16
  90              		.cfi_def_cfa_offset 16
  91 0070 23341100 		sd	ra,8(sp)
  92 0074 23308100 		sd	s0,0(sp)
  93              		.cfi_offset 1, -8
  94              		.cfi_offset 8, -16
  95 0078 13040101 		addi	s0,sp,16
  96              		.cfi_def_cfa 8, 0
  20:src/Event.cpp ****     }else{
  97              		.loc 1 20 9 is_stmt 1
  20:src/Event.cpp ****     }else{
  98              		.loc 1 20 16 is_stmt 0
  99 007c 97000000 		call	_ZN10SemaphoreK7deblockEv@plt
  99      E7800000 
 100              	.LVL7:
  24:src/Event.cpp **** }
 101              		.loc 1 24 5 is_stmt 1
 102              		.loc 1 25 1 is_stmt 0
 103 0084 13050000 		li	a0,0
 104 0088 83308100 		ld	ra,8(sp)
 105              		.cfi_restore 1
 106 008c 03340100 		ld	s0,0(sp)
 107              		.cfi_restore 8
 108              		.cfi_def_cfa 2, 16
 109 0090 13010101 		addi	sp,sp,16
 110              		.cfi_def_cfa_offset 0
 111 0094 67800000 		jr	ra
 112              		.cfi_endproc
 113              	.LFE12:
 115              		.section	.text._ZN5EventD2Ev,"axG",@progbits,_ZN5EventD5Ev,comdat
 116              		.align	2
 117              		.weak	_ZN5EventD2Ev
 119              	_ZN5EventD2Ev:
 120              	.LFB14:
 121              		.file 2 "src/../h/Event.hpp"
   1:src/../h/Event.hpp **** //
   2:src/../h/Event.hpp **** // Created by os on 6/19/22.
   3:src/../h/Event.hpp **** //
   4:src/../h/Event.hpp **** 
   5:src/../h/Event.hpp **** #ifndef PROJECT_FINAL_EVENT_HPP
   6:src/../h/Event.hpp **** #define PROJECT_FINAL_EVENT_HPP
   7:src/../h/Event.hpp **** #include "../h/SemaphoreK.hpp"
   8:src/../h/Event.hpp **** 
   9:src/../h/Event.hpp **** class Event: public SemaphoreK {
 122              		.loc 2 9 7 is_stmt 1
 123              		.cfi_startproc
 124              	.LVL8:
 125 0000 130101FF 		addi	sp,sp,-16
 126              		.cfi_def_cfa_offset 16
 127 0004 23341100 		sd	ra,8(sp)
 128 0008 23308100 		sd	s0,0(sp)
 129              		.cfi_offset 1, -8
 130              		.cfi_offset 8, -16
 131 000c 13040101 		addi	s0,sp,16
 132              		.cfi_def_cfa 8, 0
GAS LISTING /tmp/cc4UBkCP.s 			page 4


 133              	.LBB12:
 134              		.loc 2 9 7 is_stmt 0
 135 0010 97070000 		lla	a5,_ZTV5Event+16
 135      93870700 
 136 0018 2330F500 		sd	a5,0(a0)
 137 001c 97000000 		call	_ZN10SemaphoreKD2Ev@plt
 137      E7800000 
 138              	.LVL9:
 139              	.LBE12:
 140 0024 83308100 		ld	ra,8(sp)
 141              		.cfi_restore 1
 142 0028 03340100 		ld	s0,0(sp)
 143              		.cfi_restore 8
 144              		.cfi_def_cfa 2, 16
 145 002c 13010101 		addi	sp,sp,16
 146              		.cfi_def_cfa_offset 0
 147 0030 67800000 		jr	ra
 148              		.cfi_endproc
 149              	.LFE14:
 151              		.weak	_ZN5EventD1Ev
 152              		.set	_ZN5EventD1Ev,_ZN5EventD2Ev
 153              		.section	.text._ZN5EventD0Ev,"axG",@progbits,_ZN5EventD5Ev,comdat
 154              		.align	2
 155              		.weak	_ZN5EventD0Ev
 157              	_ZN5EventD0Ev:
 158              	.LFB16:
 159              		.loc 2 9 7 is_stmt 1
 160              		.cfi_startproc
 161              	.LVL10:
 162 0000 130101FE 		addi	sp,sp,-32
 163              		.cfi_def_cfa_offset 32
 164 0004 233C1100 		sd	ra,24(sp)
 165 0008 23388100 		sd	s0,16(sp)
 166 000c 23349100 		sd	s1,8(sp)
 167              		.cfi_offset 1, -8
 168              		.cfi_offset 8, -16
 169              		.cfi_offset 9, -24
 170 0010 13040102 		addi	s0,sp,32
 171              		.cfi_def_cfa 8, 0
 172 0014 93040500 		mv	s1,a0
 173              	.LVL11:
 174              	.LBB13:
 175              	.LBB14:
 176              		.loc 2 9 7 is_stmt 0
 177 0018 97070000 		lla	a5,_ZTV5Event+16
 177      93870700 
 178 0020 2330F500 		sd	a5,0(a0)
 179 0024 97000000 		call	_ZN10SemaphoreKD2Ev@plt
 179      E7800000 
 180              	.LVL12:
 181              	.LBE14:
 182              	.LBE13:
 183 002c 13850400 		mv	a0,s1
 184 0030 97000000 		call	_ZN10SemaphoreKdlEPv@plt
 184      E7800000 
 185              	.LVL13:
 186 0038 83308101 		ld	ra,24(sp)
GAS LISTING /tmp/cc4UBkCP.s 			page 5


 187              		.cfi_restore 1
 188 003c 03340101 		ld	s0,16(sp)
 189              		.cfi_restore 8
 190              		.cfi_def_cfa 2, 32
 191 0040 83348100 		ld	s1,8(sp)
 192              		.cfi_restore 9
 193              	.LVL14:
 194 0044 13010102 		addi	sp,sp,32
 195              		.cfi_def_cfa_offset 0
 196 0048 67800000 		jr	ra
 197              		.cfi_endproc
 198              	.LFE16:
 200              		.text
 201              		.align	2
 202              		.globl	_ZN5EventC2Ev
 204              	_ZN5EventC2Ev:
 205              	.LFB9:
   7:src/Event.cpp **** }
 206              		.loc 1 7 1 is_stmt 1
 207              		.cfi_startproc
 208              	.LVL15:
 209 0098 130101FD 		addi	sp,sp,-48
 210              		.cfi_def_cfa_offset 48
 211 009c 23341102 		sd	ra,40(sp)
 212 00a0 23308102 		sd	s0,32(sp)
 213              		.cfi_offset 1, -8
 214              		.cfi_offset 8, -16
 215 00a4 13040103 		addi	s0,sp,48
 216              		.cfi_def_cfa 8, 0
 217              	.LVL16:
 218              	.LBB15:
 219              	.LBB16:
 220              	.LBB17:
 221              		.file 3 "src/../h/../h/SemaphoreK.hpp"
   1:src/../h/../h/SemaphoreK.hpp **** //
   2:src/../h/../h/SemaphoreK.hpp **** // Created by os on 5/22/22.
   3:src/../h/../h/SemaphoreK.hpp **** //
   4:src/../h/../h/SemaphoreK.hpp **** 
   5:src/../h/../h/SemaphoreK.hpp **** #ifndef PROJECT_BASE_V1_0_SEMAPHORE_HPP
   6:src/../h/../h/SemaphoreK.hpp **** #define PROJECT_BASE_V1_0_SEMAPHORE_HPP
   7:src/../h/../h/SemaphoreK.hpp **** 
   8:src/../h/../h/SemaphoreK.hpp **** #include "../h/ThreadK.hpp"
   9:src/../h/../h/SemaphoreK.hpp **** 
  10:src/../h/../h/SemaphoreK.hpp **** class SemaphoreK {
  11:src/../h/../h/SemaphoreK.hpp **** public:
  12:src/../h/../h/SemaphoreK.hpp ****     SemaphoreK(int val = 1): value(val){}
 222              		.loc 3 12 39 is_stmt 0
 223 00a8 93071000 		li	a5,1
 224 00ac 2324F500 		sw	a5,8(a0)
 225 00b0 23380500 		sd	zero,16(a0)
 226 00b4 233C0500 		sd	zero,24(a0)
 227              	.LVL17:
 228              	.LBE17:
 229              	.LBE16:
   7:src/Event.cpp **** }
 230              		.loc 1 7 14
 231 00b8 97070000 		lla	a5,_ZTV5Event+16
GAS LISTING /tmp/cc4UBkCP.s 			page 6


 231      93870700 
 232 00c0 2330F500 		sd	a5,0(a0)
   8:src/Event.cpp **** }
 233              		.loc 1 8 5 is_stmt 1
 234              	.LVL18:
 235              	.LBB18:
 236              	.LBB19:
 237              	.LBB20:
 238              		.loc 3 12 39 is_stmt 0
 239 00c4 97070000 		la	a5,_ZTV10SemaphoreK
 239      83B70700 
 240 00cc 93870701 		addi	a5,a5,16
 241 00d0 2338F4FC 		sd	a5,-48(s0)
 242 00d4 232C04FC 		sw	zero,-40(s0)
 243 00d8 233004FE 		sd	zero,-32(s0)
 244 00dc 233404FE 		sd	zero,-24(s0)
 245              	.LVL19:
 246              	.LBE20:
 247              	.LBE19:
 248              	.LBE18:
   8:src/Event.cpp **** }
 249              		.loc 1 8 5
 250 00e0 130504FD 		addi	a0,s0,-48
 251              	.LVL20:
 252 00e4 97000000 		call	_ZN10SemaphoreKD1Ev@plt
 252      E7800000 
 253              	.LVL21:
 254              	.LBE15:
   9:src/Event.cpp **** 
 255              		.loc 1 9 1
 256 00ec 83308102 		ld	ra,40(sp)
 257              		.cfi_restore 1
 258 00f0 03340102 		ld	s0,32(sp)
 259              		.cfi_restore 8
 260              		.cfi_def_cfa 2, 48
 261 00f4 13010103 		addi	sp,sp,48
 262              		.cfi_def_cfa_offset 0
 263 00f8 67800000 		jr	ra
 264              		.cfi_endproc
 265              	.LFE9:
 267              		.globl	_ZN5EventC1Ev
 268              		.set	_ZN5EventC1Ev,_ZN5EventC2Ev
 269              		.weak	_ZTV5Event
 270              		.section	.data.rel.ro.local._ZTV5Event,"awG",@progbits,_ZTV5Event,comdat
 271              		.align	3
 274              	_ZTV5Event:
 275 0000 00000000 		.dword	0
 275      00000000 
 276 0008 00000000 		.dword	0
 276      00000000 
 277 0010 00000000 		.dword	_ZN5EventD1Ev
 277      00000000 
 278 0018 00000000 		.dword	_ZN5EventD0Ev
 278      00000000 
 279 0020 00000000 		.dword	_ZN5Event4waitEv
 279      00000000 
 280 0028 00000000 		.dword	_ZN5Event6signalEv
GAS LISTING /tmp/cc4UBkCP.s 			page 7


 280      00000000 
 281              		.text
 282              	.Letext0:
 283              		.file 4 "src/../h/../h/../h/../lib/hw.h"
 284              		.file 5 "src/../h/../h/../h/../h/syscall_c.h"
GAS LISTING /tmp/cc4UBkCP.s 			page 8

