GAS LISTING /tmp/ccuSFo7w.s 			page 1


   1              		.file	"main.cpp"
   2              		.option pic
   3              		.option norelax
   4              		.text
   5              	.Ltext0:
   6              		.section	.text._ZN8ConsoleK12deInitializeEv,"axG",@progbits,_ZN8ConsoleK12deInitializeEv,comdat
   7              		.align	2
   8              		.weak	_ZN8ConsoleK12deInitializeEv
  10              	_ZN8ConsoleK12deInitializeEv:
  11              	.LFB27:
  12              		.file 1 "src/../h/ConsoleK.hpp"
   1:src/../h/ConsoleK.hpp **** //
   2:src/../h/ConsoleK.hpp **** // Created by os on 6/1/22.
   3:src/../h/ConsoleK.hpp **** //
   4:src/../h/ConsoleK.hpp **** 
   5:src/../h/ConsoleK.hpp **** #ifndef PROJECT_BASE_V1_0_CONSOLE_HPP
   6:src/../h/ConsoleK.hpp **** #define PROJECT_BASE_V1_0_CONSOLE_HPP
   7:src/../h/ConsoleK.hpp **** 
   8:src/../h/ConsoleK.hpp **** #include "../h/BoundedBuffer.hpp"
   9:src/../h/ConsoleK.hpp **** #include "../h/Event.hpp"
  10:src/../h/ConsoleK.hpp **** 
  11:src/../h/ConsoleK.hpp **** class ConsoleK {
  12:src/../h/ConsoleK.hpp **** public:
  13:src/../h/ConsoleK.hpp ****     static ConsoleK* initialize();
  14:src/../h/ConsoleK.hpp ****     static int deInitialize(){
  13              		.loc 1 14 16
  14              		.cfi_startproc
  15 0000 130101FE 		addi	sp,sp,-32
  16              		.cfi_def_cfa_offset 32
  17 0004 233C1100 		sd	ra,24(sp)
  18 0008 23388100 		sd	s0,16(sp)
  19 000c 23349100 		sd	s1,8(sp)
  20              		.cfi_offset 1, -8
  21              		.cfi_offset 8, -16
  22              		.cfi_offset 9, -24
  23 0010 13040102 		addi	s0,sp,32
  24              		.cfi_def_cfa 8, 0
  15:src/../h/ConsoleK.hpp ****         delete instance->bufferIn;
  25              		.loc 1 15 9
  26              		.loc 1 15 26 is_stmt 0
  27 0014 97070000 		la	a5,_ZN8ConsoleK8instanceE
  27      83B70700 
  28 001c 83B70700 		ld	a5,0(a5)
  29 0020 83B40701 		ld	s1,16(a5)
  30              		.loc 1 15 34
  31 0024 638E0404 		beqz	s1,.L2
  32              	.LVL0:
  33              	.LBB13:
  34              	.LBB14:
  35              		.file 2 "src/../h/../h/BoundedBuffer.hpp"
   1:src/../h/../h/BoundedBuffer.hpp **** //
   2:src/../h/../h/BoundedBuffer.hpp **** // Created by os on 6/1/22.
   3:src/../h/../h/BoundedBuffer.hpp **** //
   4:src/../h/../h/BoundedBuffer.hpp **** 
   5:src/../h/../h/BoundedBuffer.hpp **** #ifndef PROJECT_BASE_V1_0_BOUNDEDBUFFER_HPP
   6:src/../h/../h/BoundedBuffer.hpp **** #define PROJECT_BASE_V1_0_BOUNDEDBUFFER_HPP
   7:src/../h/../h/BoundedBuffer.hpp **** #include "../h/SemaphoreK.hpp"
GAS LISTING /tmp/ccuSFo7w.s 			page 2


   8:src/../h/../h/BoundedBuffer.hpp **** 
   9:src/../h/../h/BoundedBuffer.hpp **** class BoundedBuffer {
  10:src/../h/../h/BoundedBuffer.hpp **** public:
  11:src/../h/../h/BoundedBuffer.hpp ****     BoundedBuffer();
  12:src/../h/../h/BoundedBuffer.hpp ****     ~BoundedBuffer(){
  13:src/../h/../h/BoundedBuffer.hpp ****         delete mutex;
  36              		.loc 2 13 9 is_stmt 1
  37              		.loc 2 13 16 is_stmt 0
  38 0028 03B58400 		ld	a0,8(s1)
  39              		.loc 2 13 21
  40 002c 63080500 		beqz	a0,.L3
  41              		.loc 2 13 16
  42 0030 83370500 		ld	a5,0(a0)
  43 0034 83B78700 		ld	a5,8(a5)
  44 0038 E7800700 		jalr	a5
  45              	.LVL1:
  46              	.L3:
  14:src/../h/../h/BoundedBuffer.hpp ****         delete spaceAvailable;
  47              		.loc 2 14 9 is_stmt 1
  48              		.loc 2 14 16 is_stmt 0
  49 003c 03B50401 		ld	a0,16(s1)
  50              		.loc 2 14 30
  51 0040 63080500 		beqz	a0,.L4
  52              		.loc 2 14 16
  53 0044 83370500 		ld	a5,0(a0)
  54 0048 83B78700 		ld	a5,8(a5)
  55 004c E7800700 		jalr	a5
  56              	.LVL2:
  57              	.L4:
  15:src/../h/../h/BoundedBuffer.hpp ****         delete itemAvailable;
  58              		.loc 2 15 9 is_stmt 1
  59              		.loc 2 15 16 is_stmt 0
  60 0050 03B58401 		ld	a0,24(s1)
  61              		.loc 2 15 29
  62 0054 63080500 		beqz	a0,.L5
  63              		.loc 2 15 16
  64 0058 83370500 		ld	a5,0(a0)
  65 005c 83B78700 		ld	a5,8(a5)
  66 0060 E7800700 		jalr	a5
  67              	.LVL3:
  68              	.L5:
  16:src/../h/../h/BoundedBuffer.hpp ****         delete buffer;
  69              		.loc 2 16 9 is_stmt 1
  70              		.loc 2 16 16 is_stmt 0
  71 0064 03B50402 		ld	a0,32(s1)
  72              		.loc 2 16 22
  73 0068 63060500 		beqz	a0,.L6
  74              		.loc 2 16 16
  75 006c 97000000 		call	_ZdlPv@plt
  75      E7800000 
  76              	.LVL4:
  77              	.L6:
  78              	.LBE14:
  79              	.LBE13:
  80              		.loc 1 15 26
  81 0074 13850400 		mv	a0,s1
  82 0078 97000000 		call	_ZN13BoundedBufferdlEPv@plt
GAS LISTING /tmp/ccuSFo7w.s 			page 3


  82      E7800000 
  83              	.LVL5:
  84              	.L2:
  16:src/../h/ConsoleK.hpp ****         delete instance->bufferOut;
  85              		.loc 1 16 9 is_stmt 1
  86              		.loc 1 16 26 is_stmt 0
  87 0080 97070000 		la	a5,_ZN8ConsoleK8instanceE
  87      83B70700 
  88 0088 83B70700 		ld	a5,0(a5)
  89 008c 83B48701 		ld	s1,24(a5)
  90              		.loc 1 16 35
  91 0090 638E0404 		beqz	s1,.L7
  92              	.LVL6:
  93              	.LBB15:
  94              	.LBB16:
  13:src/../h/../h/BoundedBuffer.hpp ****         delete spaceAvailable;
  95              		.loc 2 13 9 is_stmt 1
  13:src/../h/../h/BoundedBuffer.hpp ****         delete spaceAvailable;
  96              		.loc 2 13 16 is_stmt 0
  97 0094 03B58400 		ld	a0,8(s1)
  13:src/../h/../h/BoundedBuffer.hpp ****         delete spaceAvailable;
  98              		.loc 2 13 21
  99 0098 63080500 		beqz	a0,.L8
  13:src/../h/../h/BoundedBuffer.hpp ****         delete spaceAvailable;
 100              		.loc 2 13 16
 101 009c 83370500 		ld	a5,0(a0)
 102 00a0 83B78700 		ld	a5,8(a5)
 103 00a4 E7800700 		jalr	a5
 104              	.LVL7:
 105              	.L8:
  14:src/../h/../h/BoundedBuffer.hpp ****         delete itemAvailable;
 106              		.loc 2 14 9 is_stmt 1
  14:src/../h/../h/BoundedBuffer.hpp ****         delete itemAvailable;
 107              		.loc 2 14 16 is_stmt 0
 108 00a8 03B50401 		ld	a0,16(s1)
  14:src/../h/../h/BoundedBuffer.hpp ****         delete itemAvailable;
 109              		.loc 2 14 30
 110 00ac 63080500 		beqz	a0,.L9
  14:src/../h/../h/BoundedBuffer.hpp ****         delete itemAvailable;
 111              		.loc 2 14 16
 112 00b0 83370500 		ld	a5,0(a0)
 113 00b4 83B78700 		ld	a5,8(a5)
 114 00b8 E7800700 		jalr	a5
 115              	.LVL8:
 116              	.L9:
  15:src/../h/../h/BoundedBuffer.hpp ****         delete buffer;
 117              		.loc 2 15 9 is_stmt 1
  15:src/../h/../h/BoundedBuffer.hpp ****         delete buffer;
 118              		.loc 2 15 16 is_stmt 0
 119 00bc 03B58401 		ld	a0,24(s1)
  15:src/../h/../h/BoundedBuffer.hpp ****         delete buffer;
 120              		.loc 2 15 29
 121 00c0 63080500 		beqz	a0,.L10
  15:src/../h/../h/BoundedBuffer.hpp ****         delete buffer;
 122              		.loc 2 15 16
 123 00c4 83370500 		ld	a5,0(a0)
 124 00c8 83B78700 		ld	a5,8(a5)
GAS LISTING /tmp/ccuSFo7w.s 			page 4


 125 00cc E7800700 		jalr	a5
 126              	.LVL9:
 127              	.L10:
 128              		.loc 2 16 9 is_stmt 1
 129              		.loc 2 16 16 is_stmt 0
 130 00d0 03B50402 		ld	a0,32(s1)
 131              		.loc 2 16 22
 132 00d4 63060500 		beqz	a0,.L11
 133              		.loc 2 16 16
 134 00d8 97000000 		call	_ZdlPv@plt
 134      E7800000 
 135              	.LVL10:
 136              	.L11:
 137              	.LBE16:
 138              	.LBE15:
 139              		.loc 1 16 26
 140 00e0 13850400 		mv	a0,s1
 141 00e4 97000000 		call	_ZN13BoundedBufferdlEPv@plt
 141      E7800000 
 142              	.LVL11:
 143              	.L7:
  17:src/../h/ConsoleK.hpp ****         delete instance->semPutC;
 144              		.loc 1 17 9 is_stmt 1
 145              		.loc 1 17 26 is_stmt 0
 146 00ec 97070000 		la	a5,_ZN8ConsoleK8instanceE
 146      83B70700 
 147 00f4 83B70700 		ld	a5,0(a5)
 148 00f8 03B58700 		ld	a0,8(a5)
 149              		.loc 1 17 33
 150 00fc 63080500 		beqz	a0,.L12
 151              		.loc 1 17 26 discriminator 1
 152 0100 83370500 		ld	a5,0(a0)
 153 0104 83B78700 		ld	a5,8(a5)
 154 0108 E7800700 		jalr	a5
 155              	.LVL12:
 156              	.L12:
  18:src/../h/ConsoleK.hpp ****         delete instance->semGetC;
 157              		.loc 1 18 9 is_stmt 1
 158              		.loc 1 18 26 is_stmt 0
 159 010c 97070000 		la	a5,_ZN8ConsoleK8instanceE
 159      83B70700 
 160 0114 83B70700 		ld	a5,0(a5)
 161 0118 03B50700 		ld	a0,0(a5)
 162              		.loc 1 18 33
 163 011c 63080500 		beqz	a0,.L13
 164              		.loc 1 18 26 discriminator 1
 165 0120 83370500 		ld	a5,0(a0)
 166 0124 83B78700 		ld	a5,8(a5)
 167 0128 E7800700 		jalr	a5
 168              	.LVL13:
 169              	.L13:
  19:src/../h/ConsoleK.hpp ****         return MemoryAllocator::kmem_free(instance);
 170              		.loc 1 19 9 is_stmt 1
 171              		.loc 1 19 42 is_stmt 0
 172 012c 97070000 		la	a5,_ZN8ConsoleK8instanceE
 172      83B70700 
 173 0134 03B50700 		ld	a0,0(a5)
GAS LISTING /tmp/ccuSFo7w.s 			page 5


 174 0138 97000000 		call	_ZN15MemoryAllocator9kmem_freeEPv@plt
 174      E7800000 
 175              	.LVL14:
  20:src/../h/ConsoleK.hpp ****     }
 176              		.loc 1 20 5
 177 0140 83308101 		ld	ra,24(sp)
 178              		.cfi_restore 1
 179 0144 03340101 		ld	s0,16(sp)
 180              		.cfi_restore 8
 181              		.cfi_def_cfa 2, 32
 182 0148 83348100 		ld	s1,8(sp)
 183              		.cfi_restore 9
 184 014c 13010102 		addi	sp,sp,32
 185              		.cfi_def_cfa_offset 0
 186 0150 67800000 		jr	ra
 187              		.cfi_endproc
 188              	.LFE27:
 190              		.text
 191              		.align	2
 192              		.globl	main
 194              	main:
 195              	.LFB28:
 196              		.file 3 "src/main.cpp"
   1:src/main.cpp  **** 
   2:src/main.cpp  **** #include "../h/Riscv.hpp"
   3:src/main.cpp  **** #include "../h/MemoryAllocator.hpp"
   4:src/main.cpp  **** #include "../h/ThreadK.hpp"
   5:src/main.cpp  **** #include "../h/ConsoleK.hpp"
   6:src/main.cpp  **** 
   7:src/main.cpp  **** void main() {
 197              		.loc 3 7 13 is_stmt 1
 198              		.cfi_startproc
 199 0000 130101FC 		addi	sp,sp,-64
 200              		.cfi_def_cfa_offset 64
 201 0004 233C1102 		sd	ra,56(sp)
 202 0008 23388102 		sd	s0,48(sp)
 203 000c 23349102 		sd	s1,40(sp)
 204              		.cfi_offset 1, -8
 205              		.cfi_offset 8, -16
 206              		.cfi_offset 9, -24
 207 0010 13040104 		addi	s0,sp,64
 208              		.cfi_def_cfa 8, 0
   8:src/main.cpp  ****     extern void userMain();
 209              		.loc 3 8 5
   9:src/main.cpp  ****     Riscv::w_stvec((uint64)&Riscv::supervisorTrap);
 210              		.loc 3 9 5
 211              		.loc 3 9 19 is_stmt 0
 212 0014 97070000 		la	a5,_ZN5Riscv14supervisorTrapEv
 212      83B70700 
 213              	.LVL15:
 214              	.LBB17:
 215              	.LBB18:
 216              		.file 4 "src/../h/Riscv.hpp"
   1:src/../h/Riscv.hpp **** //
   2:src/../h/Riscv.hpp **** // Created by os on 5/15/22.
   3:src/../h/Riscv.hpp **** //
   4:src/../h/Riscv.hpp **** 
GAS LISTING /tmp/ccuSFo7w.s 			page 6


   5:src/../h/Riscv.hpp **** #ifndef PROJECT_BASE_V1_0_RISCV_HPP
   6:src/../h/Riscv.hpp **** #define PROJECT_BASE_V1_0_RISCV_HPP
   7:src/../h/Riscv.hpp **** 
   8:src/../h/Riscv.hpp **** #include "../lib/hw.h"
   9:src/../h/Riscv.hpp **** #include "../test/printing.hpp"
  10:src/../h/Riscv.hpp **** 
  11:src/../h/Riscv.hpp **** 
  12:src/../h/Riscv.hpp **** class Riscv {
  13:src/../h/Riscv.hpp **** public:
  14:src/../h/Riscv.hpp ****     static void* supervisorTrap();
  15:src/../h/Riscv.hpp **** 
  16:src/../h/Riscv.hpp ****     static void pushRegisters();
  17:src/../h/Riscv.hpp **** 
  18:src/../h/Riscv.hpp ****     static void popRegisters();
  19:src/../h/Riscv.hpp **** 
  20:src/../h/Riscv.hpp ****     static void popSppSpie();//ne sme biti inline funkcija
  21:src/../h/Riscv.hpp **** 
  22:src/../h/Riscv.hpp ****     //Functions to read and write to system registers
  23:src/../h/Riscv.hpp ****     static uint64 r_scause();
  24:src/../h/Riscv.hpp **** 
  25:src/../h/Riscv.hpp ****     void w_scause(uint64 sepc);
  26:src/../h/Riscv.hpp **** 
  27:src/../h/Riscv.hpp ****     static uint64 r_sstatus();
  28:src/../h/Riscv.hpp **** 
  29:src/../h/Riscv.hpp ****     static void w_sstatus(uint64 sstatus);
  30:src/../h/Riscv.hpp **** 
  31:src/../h/Riscv.hpp ****     static uint64 r_sepc();
  32:src/../h/Riscv.hpp **** 
  33:src/../h/Riscv.hpp ****     static void w_sepc(uint64 sepc);
  34:src/../h/Riscv.hpp **** 
  35:src/../h/Riscv.hpp ****     static uint64 r_stvec();
  36:src/../h/Riscv.hpp **** 
  37:src/../h/Riscv.hpp ****     static void w_stvec(uint64 sepc);
  38:src/../h/Riscv.hpp **** 
  39:src/../h/Riscv.hpp ****     static uint64 r_stval();
  40:src/../h/Riscv.hpp **** 
  41:src/../h/Riscv.hpp ****     static void w_stval(uint64 sepc);
  42:src/../h/Riscv.hpp **** 
  43:src/../h/Riscv.hpp ****     enum BitMaskSip{
  44:src/../h/Riscv.hpp ****         SIP_SSIP = (1 << 1),
  45:src/../h/Riscv.hpp ****         SIP_STIP = (1 << 5),
  46:src/../h/Riscv.hpp ****         SIP_SEIP = (1 << 9)
  47:src/../h/Riscv.hpp ****     };
  48:src/../h/Riscv.hpp **** 
  49:src/../h/Riscv.hpp ****     static void ms_sip(uint64 sepc);
  50:src/../h/Riscv.hpp **** 
  51:src/../h/Riscv.hpp ****     static void mc_sip(uint64 sepc);
  52:src/../h/Riscv.hpp **** 
  53:src/../h/Riscv.hpp ****     enum BitMaskSstatus{
  54:src/../h/Riscv.hpp ****         SSTATUS_SIE = (1 << 1),
  55:src/../h/Riscv.hpp ****         SSTATUS_SPIE = (1 << 5),
  56:src/../h/Riscv.hpp ****         SSTATUS_SPP = (1 << 8)
  57:src/../h/Riscv.hpp ****     };
  58:src/../h/Riscv.hpp **** 
  59:src/../h/Riscv.hpp ****     static void ms_sie(uint64 sepc);
  60:src/../h/Riscv.hpp **** 
  61:src/../h/Riscv.hpp ****     static void mc_sie(uint64 sepc);
GAS LISTING /tmp/ccuSFo7w.s 			page 7


  62:src/../h/Riscv.hpp **** 
  63:src/../h/Riscv.hpp ****     static void ms_sstatus(uint64 sepc);
  64:src/../h/Riscv.hpp **** 
  65:src/../h/Riscv.hpp ****     static void mc_sstatus(uint64 sepc);
  66:src/../h/Riscv.hpp **** 
  67:src/../h/Riscv.hpp ****     static uint64 r_sip();
  68:src/../h/Riscv.hpp **** 
  69:src/../h/Riscv.hpp ****     static void w_sip(uint64 sepc);
  70:src/../h/Riscv.hpp **** 
  71:src/../h/Riscv.hpp **** private:
  72:src/../h/Riscv.hpp ****     static void handleTrap(int,void*);
  73:src/../h/Riscv.hpp **** };
  74:src/../h/Riscv.hpp **** inline uint64 Riscv::r_scause() {
  75:src/../h/Riscv.hpp ****     uint64 volatile scause;
  76:src/../h/Riscv.hpp ****     __asm__ volatile ("csrr %[scause], scause" :  [scause] "=r" (scause));
  77:src/../h/Riscv.hpp ****     return scause;
  78:src/../h/Riscv.hpp **** }
  79:src/../h/Riscv.hpp **** 
  80:src/../h/Riscv.hpp **** inline void Riscv::w_scause(uint64 scause){
  81:src/../h/Riscv.hpp ****     __asm__ volatile("csrw scause, %[scause]": : [scause] "r" (scause));
  82:src/../h/Riscv.hpp **** }
  83:src/../h/Riscv.hpp **** 
  84:src/../h/Riscv.hpp **** inline uint64 Riscv::r_sepc() {
  85:src/../h/Riscv.hpp ****     uint64 volatile sepc;
  86:src/../h/Riscv.hpp ****     __asm__ volatile ("csrr %[sepc], sepc" :  [sepc] "=r" (sepc));
  87:src/../h/Riscv.hpp ****     return sepc;
  88:src/../h/Riscv.hpp **** }
  89:src/../h/Riscv.hpp **** 
  90:src/../h/Riscv.hpp **** inline void Riscv::w_sepc(uint64 sepc){
  91:src/../h/Riscv.hpp ****     __asm__ volatile("csrw sepc, %[sepc]": : [sepc] "r" (sepc));
  92:src/../h/Riscv.hpp **** }
  93:src/../h/Riscv.hpp **** 
  94:src/../h/Riscv.hpp **** inline uint64 Riscv::r_stvec() {
  95:src/../h/Riscv.hpp ****     uint64 volatile stvec;
  96:src/../h/Riscv.hpp ****     __asm__ volatile ("csrr %[stvec], stvec" :  [stvec] "=r" (stvec));
  97:src/../h/Riscv.hpp ****     return stvec;
  98:src/../h/Riscv.hpp **** }
  99:src/../h/Riscv.hpp **** 
 100:src/../h/Riscv.hpp **** inline void Riscv::w_stvec(uint64 stvec){
 101:src/../h/Riscv.hpp ****     __asm__ volatile("csrw stvec, %[stvec]": : [stvec] "r" (stvec));
 217              		.loc 4 101 5 is_stmt 1
 218              		.loc 4 101 68 is_stmt 0
 219              	#APP
 220              	# 101 "src/../h/Riscv.hpp" 1
 102              	}
 221              		csrw stvec, a5
 222              	# 0 "" 2
 223              	.LVL16:
 224              	#NO_APP
 225              	.LBE18:
 226              	.LBE17:
  10:src/main.cpp  ****     MemoryAllocator::initialize();
 227              		.loc 3 10 5 is_stmt 1
 228              		.loc 3 10 32 is_stmt 0
 229 0020 97000000 		call	_ZN15MemoryAllocator10initializeEv@plt
 229      E7800000 
 230              	.LVL17:
GAS LISTING /tmp/ccuSFo7w.s 			page 8


  11:src/main.cpp  ****     Scheduler::initialize();
 231              		.loc 3 11 5 is_stmt 1
 232              		.loc 3 11 26 is_stmt 0
 233 0028 97000000 		call	_ZN9Scheduler10initializeEv@plt
 233      E7800000 
 234              	.LVL18:
  12:src/main.cpp  ****     ConsoleK::initialize();
 235              		.loc 3 12 5 is_stmt 1
 236              		.loc 3 12 25 is_stmt 0
 237 0030 97000000 		call	_ZN8ConsoleK10initializeEv@plt
 237      E7800000 
 238              	.LVL19:
  13:src/main.cpp  ****     thread_t threads[4];
 239              		.loc 3 13 5 is_stmt 1
  14:src/main.cpp  ****     //main create
  15:src/main.cpp  ****     threads[0] = ThreadK::createThread(nullptr, nullptr, nullptr, true, false);
 240              		.loc 3 15 5
 241              		.loc 3 15 39 is_stmt 0
 242 0038 13070000 		li	a4,0
 243 003c 93061000 		li	a3,1
 244 0040 13060000 		li	a2,0
 245 0044 93050000 		li	a1,0
 246 0048 13050000 		li	a0,0
 247 004c 97000000 		call	_ZN7ThreadK12createThreadEPFvPvES0_Pmbb@plt
 247      E7800000 
 248              	.LVL20:
 249              		.loc 3 15 16
 250 0054 2330A4FC 		sd	a0,-64(s0)
  16:src/main.cpp  ****     //userMain thread create
  17:src/main.cpp  ****     threads[1] = ThreadK::createThread(reinterpret_cast<void (*)(void *)>(userMain), nullptr, (uint
 251              		.loc 3 17 5 is_stmt 1
 252              		.loc 3 17 132 is_stmt 0
 253 0058 37850000 		li	a0,32768
 254 005c 97000000 		call	_ZN15MemoryAllocator10kmem_allocEm@plt
 254      E7800000 
 255              	.LVL21:
 256 0064 13060500 		mv	a2,a0
 257              		.loc 3 17 39
 258 0068 13070000 		li	a4,0
 259 006c 93060000 		li	a3,0
 260 0070 93050000 		li	a1,0
 261 0074 17050000 		la	a0,_Z8userMainv
 261      03350500 
 262 007c 97000000 		call	_ZN7ThreadK12createThreadEPFvPvES0_Pmbb@plt
 262      E7800000 
 263              	.LVL22:
 264              		.loc 3 17 16
 265 0084 2334A4FC 		sd	a0,-56(s0)
  18:src/main.cpp  ****     //console threads create
  19:src/main.cpp  ****     threads[2] = ThreadK::createThread(ConsoleK::producer, nullptr, (uint64*) MemoryAllocator::kmem
 266              		.loc 3 19 5 is_stmt 1
 267              		.loc 3 19 106 is_stmt 0
 268 0088 37850000 		li	a0,32768
 269 008c 97000000 		call	_ZN15MemoryAllocator10kmem_allocEm@plt
 269      E7800000 
 270              	.LVL23:
 271 0094 13060500 		mv	a2,a0
GAS LISTING /tmp/ccuSFo7w.s 			page 9


 272              		.loc 3 19 39
 273 0098 13070000 		li	a4,0
 274 009c 93061000 		li	a3,1
 275 00a0 93050000 		li	a1,0
 276 00a4 17050000 		la	a0,_ZN8ConsoleK8producerEPv
 276      03350500 
 277 00ac 97000000 		call	_ZN7ThreadK12createThreadEPFvPvES0_Pmbb@plt
 277      E7800000 
 278              	.LVL24:
 279              		.loc 3 19 16
 280 00b4 2338A4FC 		sd	a0,-48(s0)
  20:src/main.cpp  ****     threads[3] = ThreadK::createThread(ConsoleK::consumer, nullptr, (uint64*) MemoryAllocator::kmem
 281              		.loc 3 20 5 is_stmt 1
 282              		.loc 3 20 106 is_stmt 0
 283 00b8 37850000 		li	a0,32768
 284 00bc 97000000 		call	_ZN15MemoryAllocator10kmem_allocEm@plt
 284      E7800000 
 285              	.LVL25:
 286 00c4 13060500 		mv	a2,a0
 287              		.loc 3 20 39
 288 00c8 13070000 		li	a4,0
 289 00cc 93061000 		li	a3,1
 290 00d0 93050000 		li	a1,0
 291 00d4 17050000 		la	a0,_ZN8ConsoleK8consumerEPv
 291      03350500 
 292 00dc 97000000 		call	_ZN7ThreadK12createThreadEPFvPvES0_Pmbb@plt
 292      E7800000 
 293              	.LVL26:
 294              		.loc 3 20 16
 295 00e4 233CA4FC 		sd	a0,-40(s0)
  21:src/main.cpp  ****     ThreadK::running = threads[0];
 296              		.loc 3 21 5 is_stmt 1
 297              		.loc 3 21 22 is_stmt 0
 298 00e8 033704FC 		ld	a4,-64(s0)
 299 00ec 97070000 		la	a5,_ZN7ThreadK7runningE
 299      83B70700 
 300 00f4 23B0E700 		sd	a4,0(a5)
  22:src/main.cpp  **** 
  23:src/main.cpp  ****     threads[1]->join();
 301              		.loc 3 23 5 is_stmt 1
 302              		.loc 3 23 21 is_stmt 0
 303 00f8 033584FC 		ld	a0,-56(s0)
 304 00fc 97000000 		call	_ZN7ThreadK4joinEv@plt
 304      E7800000 
 305              	.LVL27:
 306              	.L17:
  24:src/main.cpp  **** 
  25:src/main.cpp  ****     while (!ConsoleK::finished()) {
 307              		.loc 3 25 5 is_stmt 1
 308              		.loc 3 25 12
 309              		.loc 3 25 31 is_stmt 0
 310 0104 97000000 		call	_ZN8ConsoleK8finishedEv@plt
 310      E7800000 
 311              	.LVL28:
 312              		.loc 3 25 12
 313 010c 63180500 		bnez	a0,.L19
  26:src/main.cpp  ****         ThreadK::yield();
GAS LISTING /tmp/ccuSFo7w.s 			page 10


 314              		.loc 3 26 9 is_stmt 1
 315              		.loc 3 26 23 is_stmt 0
 316 0110 97000000 		call	_ZN7ThreadK5yieldEv@plt
 316      E7800000 
 317              	.LVL29:
 318 0118 6FF0DFFE 		j	.L17
 319              	.L19:
 320              	.LBB19:
  27:src/main.cpp  ****     }
  28:src/main.cpp  ****     //bezopasno je ovde raditi kill jer nece doci do promena konteksta pa nece zabagovati scheduler
  29:src/main.cpp  ****     //NAPOMENA: ne smeju se ubijati niti koje su u scheduleru sa funkcijom kill, mogu biti uspavane
  30:src/main.cpp  ****     for(auto t: threads){
 321              		.loc 3 30 17
 322 011c 930404FC 		addi	s1,s0,-64
 323 0120 6F004001 		j	.L16
 324              	.LVL30:
 325              	.L21:
  31:src/main.cpp  ****         t->kill();
 326              		.loc 3 31 9 is_stmt 1 discriminator 2
 327              		.loc 3 31 16 is_stmt 0 discriminator 2
 328 0124 03B50400 		ld	a0,0(s1)
 329 0128 97000000 		call	_ZN7ThreadK4killEv@plt
 329      E7800000 
 330              	.LVL31:
  30:src/main.cpp  ****         t->kill();
 331              		.loc 3 30 5 is_stmt 1 discriminator 2
 332 0130 93848400 		addi	s1,s1,8
 333              	.LVL32:
 334              	.L16:
  30:src/main.cpp  ****         t->kill();
 335              		.loc 3 30 17 discriminator 1
 336 0134 930704FE 		addi	a5,s0,-32
 337 0138 E396F4FE 		bne	s1,a5,.L21
 338              	.LBE19:
  32:src/main.cpp  ****     }
  33:src/main.cpp  **** 
  34:src/main.cpp  ****     ThreadK::deleteThreads();
 339              		.loc 3 34 5
 340              		.loc 3 34 27 is_stmt 0
 341 013c 97000000 		call	_ZN7ThreadK13deleteThreadsEv@plt
 341      E7800000 
 342              	.LVL33:
  35:src/main.cpp  **** 
  36:src/main.cpp  ****     Scheduler::deInitialize();
 343              		.loc 3 36 5 is_stmt 1
 344              		.loc 3 36 28 is_stmt 0
 345 0144 97000000 		call	_ZN9Scheduler12deInitializeEv@plt
 345      E7800000 
 346              	.LVL34:
  37:src/main.cpp  ****     ConsoleK::deInitialize();
 347              		.loc 3 37 5 is_stmt 1
 348              		.loc 3 37 27 is_stmt 0
 349 014c 97000000 		call	_ZN8ConsoleK12deInitializeEv
 349      E7800000 
 350              	.LVL35:
  38:src/main.cpp  ****     MemoryAllocator::deInitialize();
 351              		.loc 3 38 5 is_stmt 1
GAS LISTING /tmp/ccuSFo7w.s 			page 11


 352              	.LBB20:
 353              	.LBB21:
 354              		.file 5 "src/../h/../test/../h/../h/../h/../h/MemoryAllocator.hpp"
   1:src/../h/../test/../h/../h/../h/../h/MemoryAllocator.hpp **** //
   2:src/../h/../test/../h/../h/../h/../h/MemoryAllocator.hpp **** // Created by os on 5/10/22.
   3:src/../h/../test/../h/../h/../h/../h/MemoryAllocator.hpp **** //
   4:src/../h/../test/../h/../h/../h/../h/MemoryAllocator.hpp **** 
   5:src/../h/../test/../h/../h/../h/../h/MemoryAllocator.hpp **** #ifndef PROJECT_BASE_V1_0_MEMORYALLOCATOR_HPP
   6:src/../h/../test/../h/../h/../h/../h/MemoryAllocator.hpp **** #define PROJECT_BASE_V1_0_MEMORYALLOCATOR_HPP
   7:src/../h/../test/../h/../h/../h/../h/MemoryAllocator.hpp **** #include "../lib/hw.h"
   8:src/../h/../test/../h/../h/../h/../h/MemoryAllocator.hpp **** class MemoryAllocator {
   9:src/../h/../test/../h/../h/../h/../h/MemoryAllocator.hpp **** public:
  10:src/../h/../test/../h/../h/../h/../h/MemoryAllocator.hpp ****     static void initialize();
  11:src/../h/../test/../h/../h/../h/../h/MemoryAllocator.hpp ****     static void* kmem_alloc(size_t realSz);//realSz is parameter in bytes
  12:src/../h/../test/../h/../h/../h/../h/MemoryAllocator.hpp ****     static int kmem_free(void * address);
  13:src/../h/../test/../h/../h/../h/../h/MemoryAllocator.hpp ****     static int deInitialize(){
  14:src/../h/../test/../h/../h/../h/../h/MemoryAllocator.hpp ****         instance->free_mem_head = nullptr;
 355              		.loc 5 14 9
 356              		.loc 5 14 19 is_stmt 0
 357 0154 97070000 		la	a5,_ZN15MemoryAllocator8instanceE
 357      83B70700 
 358 015c 03B70700 		ld	a4,0(a5)
 359              		.loc 5 14 33
 360 0160 23300700 		sd	zero,0(a4)
  15:src/../h/../test/../h/../h/../h/../h/MemoryAllocator.hpp ****         instance = nullptr;
 361              		.loc 5 15 9 is_stmt 1
 362              		.loc 5 15 18 is_stmt 0
 363 0164 23B00700 		sd	zero,0(a5)
  16:src/../h/../test/../h/../h/../h/../h/MemoryAllocator.hpp ****         return 0;
 364              		.loc 5 16 9 is_stmt 1
 365              	.LBE21:
 366              	.LBE20:
  39:src/main.cpp  **** 
  40:src/main.cpp  **** }...
 367              		.loc 3 40 1 is_stmt 0
 368 0168 83308103 		ld	ra,56(sp)
 369              		.cfi_restore 1
 370 016c 03340103 		ld	s0,48(sp)
 371              		.cfi_restore 8
 372              		.cfi_def_cfa 2, 64
 373 0170 83348102 		ld	s1,40(sp)
 374              		.cfi_restore 9
 375              	.LVL36:
 376 0174 13010104 		addi	sp,sp,64
 377              		.cfi_def_cfa_offset 0
 378 0178 67800000 		jr	ra
 379              		.cfi_endproc
 380              	.LFE28:
 382              	.Letext0:
 383              		.file 6 "src/../h/../lib/hw.h"
 384              		.file 7 "src/../h/../test/../h/../h/../h/Scheduler.hpp"
 385              		.file 8 "src/../h/../test/../h/../h/ThreadK.hpp"
 386              		.file 9 "src/../h/../test/../h/syscall_c.h"
GAS LISTING /tmp/ccuSFo7w.s 			page 12


DEFINED SYMBOLS
                            *ABS*:0000000000000000 main.cpp
     /tmp/ccuSFo7w.s:10     .text._ZN8ConsoleK12deInitializeEv:0000000000000000 _ZN8ConsoleK12deInitializeEv
     /tmp/ccuSFo7w.s:14     .text._ZN8ConsoleK12deInitializeEv:0000000000000000 .L0 
     /tmp/ccuSFo7w.s:15     .text._ZN8ConsoleK12deInitializeEv:0000000000000000 .L0 
     /tmp/ccuSFo7w.s:16     .text._ZN8ConsoleK12deInitializeEv:0000000000000004 .L0 
     /tmp/ccuSFo7w.s:20     .text._ZN8ConsoleK12deInitializeEv:0000000000000010 .L0 
     /tmp/ccuSFo7w.s:21     .text._ZN8ConsoleK12deInitializeEv:0000000000000010 .L0 
     /tmp/ccuSFo7w.s:22     .text._ZN8ConsoleK12deInitializeEv:0000000000000010 .L0 
     /tmp/ccuSFo7w.s:24     .text._ZN8ConsoleK12deInitializeEv:0000000000000014 .L0 
     /tmp/ccuSFo7w.s:26     .text._ZN8ConsoleK12deInitializeEv:0000000000000014 .L0 
     /tmp/ccuSFo7w.s:27     .text._ZN8ConsoleK12deInitializeEv:0000000000000014 .L0 
     /tmp/ccuSFo7w.s:31     .text._ZN8ConsoleK12deInitializeEv:0000000000000024 .L0 
     /tmp/ccuSFo7w.s:37     .text._ZN8ConsoleK12deInitializeEv:0000000000000028 .L0 
     /tmp/ccuSFo7w.s:38     .text._ZN8ConsoleK12deInitializeEv:0000000000000028 .L0 
     /tmp/ccuSFo7w.s:40     .text._ZN8ConsoleK12deInitializeEv:000000000000002c .L0 
     /tmp/ccuSFo7w.s:42     .text._ZN8ConsoleK12deInitializeEv:0000000000000030 .L0 
     /tmp/ccuSFo7w.s:48     .text._ZN8ConsoleK12deInitializeEv:000000000000003c .L0 
     /tmp/ccuSFo7w.s:49     .text._ZN8ConsoleK12deInitializeEv:000000000000003c .L0 
     /tmp/ccuSFo7w.s:51     .text._ZN8ConsoleK12deInitializeEv:0000000000000040 .L0 
     /tmp/ccuSFo7w.s:53     .text._ZN8ConsoleK12deInitializeEv:0000000000000044 .L0 
     /tmp/ccuSFo7w.s:59     .text._ZN8ConsoleK12deInitializeEv:0000000000000050 .L0 
     /tmp/ccuSFo7w.s:60     .text._ZN8ConsoleK12deInitializeEv:0000000000000050 .L0 
     /tmp/ccuSFo7w.s:62     .text._ZN8ConsoleK12deInitializeEv:0000000000000054 .L0 
     /tmp/ccuSFo7w.s:64     .text._ZN8ConsoleK12deInitializeEv:0000000000000058 .L0 
     /tmp/ccuSFo7w.s:70     .text._ZN8ConsoleK12deInitializeEv:0000000000000064 .L0 
     /tmp/ccuSFo7w.s:71     .text._ZN8ConsoleK12deInitializeEv:0000000000000064 .L0 
     /tmp/ccuSFo7w.s:73     .text._ZN8ConsoleK12deInitializeEv:0000000000000068 .L0 
     /tmp/ccuSFo7w.s:75     .text._ZN8ConsoleK12deInitializeEv:000000000000006c .L0 
     /tmp/ccuSFo7w.s:81     .text._ZN8ConsoleK12deInitializeEv:0000000000000074 .L0 
     /tmp/ccuSFo7w.s:86     .text._ZN8ConsoleK12deInitializeEv:0000000000000080 .L0 
     /tmp/ccuSFo7w.s:87     .text._ZN8ConsoleK12deInitializeEv:0000000000000080 .L0 
     /tmp/ccuSFo7w.s:91     .text._ZN8ConsoleK12deInitializeEv:0000000000000090 .L0 
     /tmp/ccuSFo7w.s:96     .text._ZN8ConsoleK12deInitializeEv:0000000000000094 .L0 
     /tmp/ccuSFo7w.s:97     .text._ZN8ConsoleK12deInitializeEv:0000000000000094 .L0 
     /tmp/ccuSFo7w.s:99     .text._ZN8ConsoleK12deInitializeEv:0000000000000098 .L0 
     /tmp/ccuSFo7w.s:101    .text._ZN8ConsoleK12deInitializeEv:000000000000009c .L0 
     /tmp/ccuSFo7w.s:107    .text._ZN8ConsoleK12deInitializeEv:00000000000000a8 .L0 
     /tmp/ccuSFo7w.s:108    .text._ZN8ConsoleK12deInitializeEv:00000000000000a8 .L0 
     /tmp/ccuSFo7w.s:110    .text._ZN8ConsoleK12deInitializeEv:00000000000000ac .L0 
     /tmp/ccuSFo7w.s:112    .text._ZN8ConsoleK12deInitializeEv:00000000000000b0 .L0 
     /tmp/ccuSFo7w.s:118    .text._ZN8ConsoleK12deInitializeEv:00000000000000bc .L0 
     /tmp/ccuSFo7w.s:119    .text._ZN8ConsoleK12deInitializeEv:00000000000000bc .L0 
     /tmp/ccuSFo7w.s:121    .text._ZN8ConsoleK12deInitializeEv:00000000000000c0 .L0 
     /tmp/ccuSFo7w.s:123    .text._ZN8ConsoleK12deInitializeEv:00000000000000c4 .L0 
     /tmp/ccuSFo7w.s:129    .text._ZN8ConsoleK12deInitializeEv:00000000000000d0 .L0 
     /tmp/ccuSFo7w.s:130    .text._ZN8ConsoleK12deInitializeEv:00000000000000d0 .L0 
     /tmp/ccuSFo7w.s:132    .text._ZN8ConsoleK12deInitializeEv:00000000000000d4 .L0 
     /tmp/ccuSFo7w.s:134    .text._ZN8ConsoleK12deInitializeEv:00000000000000d8 .L0 
     /tmp/ccuSFo7w.s:140    .text._ZN8ConsoleK12deInitializeEv:00000000000000e0 .L0 
     /tmp/ccuSFo7w.s:145    .text._ZN8ConsoleK12deInitializeEv:00000000000000ec .L0 
     /tmp/ccuSFo7w.s:146    .text._ZN8ConsoleK12deInitializeEv:00000000000000ec .L0 
     /tmp/ccuSFo7w.s:150    .text._ZN8ConsoleK12deInitializeEv:00000000000000fc .L0 
     /tmp/ccuSFo7w.s:152    .text._ZN8ConsoleK12deInitializeEv:0000000000000100 .L0 
     /tmp/ccuSFo7w.s:158    .text._ZN8ConsoleK12deInitializeEv:000000000000010c .L0 
     /tmp/ccuSFo7w.s:159    .text._ZN8ConsoleK12deInitializeEv:000000000000010c .L0 
     /tmp/ccuSFo7w.s:163    .text._ZN8ConsoleK12deInitializeEv:000000000000011c .L0 
GAS LISTING /tmp/ccuSFo7w.s 			page 13


     /tmp/ccuSFo7w.s:165    .text._ZN8ConsoleK12deInitializeEv:0000000000000120 .L0 
     /tmp/ccuSFo7w.s:171    .text._ZN8ConsoleK12deInitializeEv:000000000000012c .L0 
     /tmp/ccuSFo7w.s:172    .text._ZN8ConsoleK12deInitializeEv:000000000000012c .L0 
     /tmp/ccuSFo7w.s:177    .text._ZN8ConsoleK12deInitializeEv:0000000000000140 .L0 
     /tmp/ccuSFo7w.s:178    .text._ZN8ConsoleK12deInitializeEv:0000000000000144 .L0 
     /tmp/ccuSFo7w.s:180    .text._ZN8ConsoleK12deInitializeEv:0000000000000148 .L0 
     /tmp/ccuSFo7w.s:181    .text._ZN8ConsoleK12deInitializeEv:0000000000000148 .L0 
     /tmp/ccuSFo7w.s:183    .text._ZN8ConsoleK12deInitializeEv:000000000000014c .L0 
     /tmp/ccuSFo7w.s:185    .text._ZN8ConsoleK12deInitializeEv:0000000000000150 .L0 
     /tmp/ccuSFo7w.s:187    .text._ZN8ConsoleK12deInitializeEv:0000000000000154 .L0 
     /tmp/ccuSFo7w.s:194    .text:0000000000000000 main
     /tmp/ccuSFo7w.s:198    .text:0000000000000000 .L0 
     /tmp/ccuSFo7w.s:199    .text:0000000000000000 .L0 
     /tmp/ccuSFo7w.s:200    .text:0000000000000004 .L0 
     /tmp/ccuSFo7w.s:204    .text:0000000000000010 .L0 
     /tmp/ccuSFo7w.s:205    .text:0000000000000010 .L0 
     /tmp/ccuSFo7w.s:206    .text:0000000000000010 .L0 
     /tmp/ccuSFo7w.s:208    .text:0000000000000014 .L0 
     /tmp/ccuSFo7w.s:210    .text:0000000000000014 .L0 
     /tmp/ccuSFo7w.s:211    .text:0000000000000014 .L0 
     /tmp/ccuSFo7w.s:212    .text:0000000000000014 .L0 
     /tmp/ccuSFo7w.s:218    .text:000000000000001c .L0 
  src/../h/Riscv.hpp:101    .text:000000000000001c .L0 
     /tmp/ccuSFo7w.s:228    .text:0000000000000020 .L0 
     /tmp/ccuSFo7w.s:229    .text:0000000000000020 .L0 
     /tmp/ccuSFo7w.s:232    .text:0000000000000028 .L0 
     /tmp/ccuSFo7w.s:233    .text:0000000000000028 .L0 
     /tmp/ccuSFo7w.s:236    .text:0000000000000030 .L0 
     /tmp/ccuSFo7w.s:237    .text:0000000000000030 .L0 
     /tmp/ccuSFo7w.s:240    .text:0000000000000038 .L0 
     /tmp/ccuSFo7w.s:241    .text:0000000000000038 .L0 
     /tmp/ccuSFo7w.s:242    .text:0000000000000038 .L0 
     /tmp/ccuSFo7w.s:250    .text:0000000000000054 .L0 
     /tmp/ccuSFo7w.s:252    .text:0000000000000058 .L0 
     /tmp/ccuSFo7w.s:253    .text:0000000000000058 .L0 
     /tmp/ccuSFo7w.s:258    .text:0000000000000068 .L0 
     /tmp/ccuSFo7w.s:265    .text:0000000000000084 .L0 
     /tmp/ccuSFo7w.s:267    .text:0000000000000088 .L0 
     /tmp/ccuSFo7w.s:268    .text:0000000000000088 .L0 
     /tmp/ccuSFo7w.s:273    .text:0000000000000098 .L0 
     /tmp/ccuSFo7w.s:280    .text:00000000000000b4 .L0 
     /tmp/ccuSFo7w.s:282    .text:00000000000000b8 .L0 
     /tmp/ccuSFo7w.s:283    .text:00000000000000b8 .L0 
     /tmp/ccuSFo7w.s:288    .text:00000000000000c8 .L0 
     /tmp/ccuSFo7w.s:295    .text:00000000000000e4 .L0 
     /tmp/ccuSFo7w.s:297    .text:00000000000000e8 .L0 
     /tmp/ccuSFo7w.s:298    .text:00000000000000e8 .L0 
     /tmp/ccuSFo7w.s:302    .text:00000000000000f8 .L0 
     /tmp/ccuSFo7w.s:303    .text:00000000000000f8 .L0 
     /tmp/ccuSFo7w.s:308    .text:0000000000000104 .L0 
     /tmp/ccuSFo7w.s:309    .text:0000000000000104 .L0 
     /tmp/ccuSFo7w.s:310    .text:0000000000000104 .L0 
     /tmp/ccuSFo7w.s:313    .text:000000000000010c .L0 
     /tmp/ccuSFo7w.s:315    .text:0000000000000110 .L0 
     /tmp/ccuSFo7w.s:316    .text:0000000000000110 .L0 
     /tmp/ccuSFo7w.s:322    .text:000000000000011c .L0 
     /tmp/ccuSFo7w.s:327    .text:0000000000000124 .L0 
GAS LISTING /tmp/ccuSFo7w.s 			page 14


     /tmp/ccuSFo7w.s:328    .text:0000000000000124 .L0 
     /tmp/ccuSFo7w.s:332    .text:0000000000000130 .L0 
     /tmp/ccuSFo7w.s:336    .text:0000000000000134 .L0 
     /tmp/ccuSFo7w.s:340    .text:000000000000013c .L0 
     /tmp/ccuSFo7w.s:341    .text:000000000000013c .L0 
     /tmp/ccuSFo7w.s:344    .text:0000000000000144 .L0 
     /tmp/ccuSFo7w.s:345    .text:0000000000000144 .L0 
     /tmp/ccuSFo7w.s:348    .text:000000000000014c .L0 
     /tmp/ccuSFo7w.s:349    .text:000000000000014c .L0 
     /tmp/ccuSFo7w.s:355    .text:0000000000000154 .L0 
     /tmp/ccuSFo7w.s:356    .text:0000000000000154 .L0 
     /tmp/ccuSFo7w.s:357    .text:0000000000000154 .L0 
     /tmp/ccuSFo7w.s:360    .text:0000000000000160 .L0 
     /tmp/ccuSFo7w.s:362    .text:0000000000000164 .L0 
     /tmp/ccuSFo7w.s:363    .text:0000000000000164 .L0 
     /tmp/ccuSFo7w.s:367    .text:0000000000000168 .L0 
     /tmp/ccuSFo7w.s:368    .text:0000000000000168 .L0 
     /tmp/ccuSFo7w.s:369    .text:000000000000016c .L0 
     /tmp/ccuSFo7w.s:371    .text:0000000000000170 .L0 
     /tmp/ccuSFo7w.s:372    .text:0000000000000170 .L0 
     /tmp/ccuSFo7w.s:374    .text:0000000000000174 .L0 
     /tmp/ccuSFo7w.s:377    .text:0000000000000178 .L0 
     /tmp/ccuSFo7w.s:379    .text:000000000000017c .L0 
     /tmp/ccuSFo7w.s:190    .text._ZN8ConsoleK12deInitializeEv:0000000000000154 .L0 
     /tmp/ccuSFo7w.s:387    .text:000000000000017c .L0 
     /tmp/ccuSFo7w.s:212    .text:0000000000000014 .L0 
     /tmp/ccuSFo7w.s:261    .text:0000000000000074 .L0 
     /tmp/ccuSFo7w.s:276    .text:00000000000000a4 .L0 
     /tmp/ccuSFo7w.s:291    .text:00000000000000d4 .L0 
     /tmp/ccuSFo7w.s:299    .text:00000000000000ec .L0 
     /tmp/ccuSFo7w.s:357    .text:0000000000000154 .L0 
     /tmp/ccuSFo7w.s:319    .text:000000000000011c .L19
     /tmp/ccuSFo7w.s:306    .text:0000000000000104 .L17
     /tmp/ccuSFo7w.s:334    .text:0000000000000134 .L16
     /tmp/ccuSFo7w.s:325    .text:0000000000000124 .L21
     /tmp/ccuSFo7w.s:27     .text._ZN8ConsoleK12deInitializeEv:0000000000000014 .L0 
     /tmp/ccuSFo7w.s:87     .text._ZN8ConsoleK12deInitializeEv:0000000000000080 .L0 
     /tmp/ccuSFo7w.s:146    .text._ZN8ConsoleK12deInitializeEv:00000000000000ec .L0 
     /tmp/ccuSFo7w.s:159    .text._ZN8ConsoleK12deInitializeEv:000000000000010c .L0 
     /tmp/ccuSFo7w.s:172    .text._ZN8ConsoleK12deInitializeEv:000000000000012c .L0 
     /tmp/ccuSFo7w.s:84     .text._ZN8ConsoleK12deInitializeEv:0000000000000080 .L2
     /tmp/ccuSFo7w.s:46     .text._ZN8ConsoleK12deInitializeEv:000000000000003c .L3
     /tmp/ccuSFo7w.s:57     .text._ZN8ConsoleK12deInitializeEv:0000000000000050 .L4
     /tmp/ccuSFo7w.s:68     .text._ZN8ConsoleK12deInitializeEv:0000000000000064 .L5
     /tmp/ccuSFo7w.s:77     .text._ZN8ConsoleK12deInitializeEv:0000000000000074 .L6
     /tmp/ccuSFo7w.s:143    .text._ZN8ConsoleK12deInitializeEv:00000000000000ec .L7
     /tmp/ccuSFo7w.s:105    .text._ZN8ConsoleK12deInitializeEv:00000000000000a8 .L8
     /tmp/ccuSFo7w.s:116    .text._ZN8ConsoleK12deInitializeEv:00000000000000bc .L9
     /tmp/ccuSFo7w.s:127    .text._ZN8ConsoleK12deInitializeEv:00000000000000d0 .L10
     /tmp/ccuSFo7w.s:136    .text._ZN8ConsoleK12deInitializeEv:00000000000000e0 .L11
     /tmp/ccuSFo7w.s:156    .text._ZN8ConsoleK12deInitializeEv:000000000000010c .L12
     /tmp/ccuSFo7w.s:169    .text._ZN8ConsoleK12deInitializeEv:000000000000012c .L13
     /tmp/ccuSFo7w.s:2271   .debug_abbrev:0000000000000000 .Ldebug_abbrev0
     /tmp/ccuSFo7w.s:3713   .debug_str:0000000000000b3c .LASF211
     /tmp/ccuSFo7w.s:3445   .debug_str:0000000000000356 .LASF212
     /tmp/ccuSFo7w.s:3619   .debug_str:0000000000000871 .LASF213
     /tmp/ccuSFo7w.s:3329   .debug_ranges:0000000000000000 .Ldebug_ranges0
GAS LISTING /tmp/ccuSFo7w.s 			page 15


     /tmp/ccuSFo7w.s:3337   .debug_line:0000000000000000 .Ldebug_line0
     /tmp/ccuSFo7w.s:3489   .debug_str:0000000000000496 .LASF0
     /tmp/ccuSFo7w.s:3525   .debug_str:00000000000005b1 .LASF1
     /tmp/ccuSFo7w.s:3623   .debug_str:0000000000000891 .LASF2
     /tmp/ccuSFo7w.s:3635   .debug_str:00000000000008f2 .LASF4
     /tmp/ccuSFo7w.s:3503   .debug_str:0000000000000501 .LASF3
     /tmp/ccuSFo7w.s:3355   .debug_str:0000000000000073 .LASF5
     /tmp/ccuSFo7w.s:3591   .debug_str:00000000000007a0 .LASF6
     /tmp/ccuSFo7w.s:3515   .debug_str:0000000000000565 .LASF7
     /tmp/ccuSFo7w.s:3457   .debug_str:0000000000000383 .LASF8
     /tmp/ccuSFo7w.s:3469   .debug_str:00000000000003fd .LASF9
     /tmp/ccuSFo7w.s:3391   .debug_str:00000000000001ac .LASF10
     /tmp/ccuSFo7w.s:3441   .debug_str:000000000000033e .LASF11
     /tmp/ccuSFo7w.s:3407   .debug_str:0000000000000217 .LASF12
     /tmp/ccuSFo7w.s:3389   .debug_str:000000000000019c .LASF13
     /tmp/ccuSFo7w.s:3681   .debug_str:0000000000000a4d .LASF14
     /tmp/ccuSFo7w.s:3427   .debug_str:000000000000029e .LASF15
     /tmp/ccuSFo7w.s:3667   .debug_str:00000000000009e3 .LASF16
     /tmp/ccuSFo7w.s:3587   .debug_str:0000000000000786 .LASF25
     /tmp/ccuSFo7w.s:3653   .debug_str:000000000000098a .LASF46
     /tmp/ccuSFo7w.s:3393   .debug_str:00000000000001bb .LASF17
     /tmp/ccuSFo7w.s:3369   .debug_str:00000000000000f5 .LASF18
     /tmp/ccuSFo7w.s:3523   .debug_str:00000000000005ac .LASF19
     /tmp/ccuSFo7w.s:3659   .debug_str:00000000000009af .LASF28
     /tmp/ccuSFo7w.s:3671   .debug_str:0000000000000a05 .LASF61
     /tmp/ccuSFo7w.s:3691   .debug_str:0000000000000ab6 .LASF20
     /tmp/ccuSFo7w.s:3383   .debug_str:0000000000000151 .LASF22
     /tmp/ccuSFo7w.s:3731   .debug_str:0000000000000c9f .LASF21
     /tmp/ccuSFo7w.s:3429   .debug_str:00000000000002b4 .LASF23
     /tmp/ccuSFo7w.s:3699   .debug_str:0000000000000add .LASF27
     /tmp/ccuSFo7w.s:3343   .debug_str:0000000000000012 .LASF29
     /tmp/ccuSFo7w.s:3509   .debug_str:000000000000052d .LASF35
     /tmp/ccuSFo7w.s:3625   .debug_str:000000000000089f .LASF37
     /tmp/ccuSFo7w.s:3733   .debug_str:0000000000000ca9 .LASF38
     /tmp/ccuSFo7w.s:3365   .debug_str:00000000000000d4 .LASF33
     /tmp/ccuSFo7w.s:3707   .debug_str:0000000000000b1d .LASF24
     /tmp/ccuSFo7w.s:3403   .debug_str:0000000000000200 .LASF41
     /tmp/ccuSFo7w.s:3645   .debug_str:0000000000000936 .LASF85
     /tmp/ccuSFo7w.s:3715   .debug_str:0000000000000c00 .LASF87
     /tmp/ccuSFo7w.s:3455   .debug_str:0000000000000379 .LASF26
     /tmp/ccuSFo7w.s:3765   .debug_str:0000000000000da3 .LASF30
     /tmp/ccuSFo7w.s:3585   .debug_str:0000000000000768 .LASF31
     /tmp/ccuSFo7w.s:3769   .debug_str:0000000000000dd1 .LASF214
     /tmp/ccuSFo7w.s:3721   .debug_str:0000000000000c54 .LASF215
     /tmp/ccuSFo7w.s:3447   .debug_str:0000000000000363 .LASF32
     /tmp/ccuSFo7w.s:3461   .debug_str:00000000000003a6 .LASF34
     /tmp/ccuSFo7w.s:3385   .debug_str:0000000000000174 .LASF36
     /tmp/ccuSFo7w.s:3633   .debug_str:00000000000008dd .LASF39
     /tmp/ccuSFo7w.s:3767   .debug_str:0000000000000dbf .LASF40
     /tmp/ccuSFo7w.s:3371   .debug_str:00000000000000fa .LASF42
     /tmp/ccuSFo7w.s:3709   .debug_str:0000000000000b2b .LASF43
     /tmp/ccuSFo7w.s:3443   .debug_str:000000000000034d .LASF44
     /tmp/ccuSFo7w.s:3573   .debug_str:000000000000071c .LASF45
     /tmp/ccuSFo7w.s:3695   .debug_str:0000000000000aca .LASF47
     /tmp/ccuSFo7w.s:3745   .debug_str:0000000000000d22 .LASF48
     /tmp/ccuSFo7w.s:3603   .debug_str:00000000000007ea .LASF49
     /tmp/ccuSFo7w.s:3679   .debug_str:0000000000000a40 .LASF50
GAS LISTING /tmp/ccuSFo7w.s 			page 16


     /tmp/ccuSFo7w.s:3651   .debug_str:0000000000000962 .LASF51
     /tmp/ccuSFo7w.s:3583   .debug_str:0000000000000763 .LASF216
     /tmp/ccuSFo7w.s:3697   .debug_str:0000000000000ad2 .LASF52
     /tmp/ccuSFo7w.s:3547   .debug_str:0000000000000660 .LASF53
     /tmp/ccuSFo7w.s:3375   .debug_str:0000000000000119 .LASF54
     /tmp/ccuSFo7w.s:3535   .debug_str:000000000000060d .LASF55
     /tmp/ccuSFo7w.s:3531   .debug_str:00000000000005e4 .LASF56
     /tmp/ccuSFo7w.s:3419   .debug_str:000000000000026c .LASF57
     /tmp/ccuSFo7w.s:3741   .debug_str:0000000000000d0d .LASF58
     /tmp/ccuSFo7w.s:3527   .debug_str:00000000000005c4 .LASF59
     /tmp/ccuSFo7w.s:3777   .debug_str:0000000000000e22 .LASF60
     /tmp/ccuSFo7w.s:3513   .debug_str:0000000000000551 .LASF62
     /tmp/ccuSFo7w.s:3529   .debug_str:00000000000005de .LASF63
     /tmp/ccuSFo7w.s:3649   .debug_str:000000000000094e .LASF64
     /tmp/ccuSFo7w.s:3501   .debug_str:00000000000004fc .LASF65
     /tmp/ccuSFo7w.s:3739   .debug_str:0000000000000cfa .LASF66
     /tmp/ccuSFo7w.s:3401   .debug_str:00000000000001fb .LASF67
     /tmp/ccuSFo7w.s:3459   .debug_str:0000000000000393 .LASF68
     /tmp/ccuSFo7w.s:3711   .debug_str:0000000000000b34 .LASF217
     /tmp/ccuSFo7w.s:3775   .debug_str:0000000000000e15 .LASF69
     /tmp/ccuSFo7w.s:3557   .debug_str:00000000000006b8 .LASF70
     /tmp/ccuSFo7w.s:3347   .debug_str:000000000000003c .LASF71
     /tmp/ccuSFo7w.s:3417   .debug_str:000000000000025b .LASF72
     /tmp/ccuSFo7w.s:3381   .debug_str:0000000000000141 .LASF73
     /tmp/ccuSFo7w.s:3551   .debug_str:0000000000000680 .LASF74
     /tmp/ccuSFo7w.s:3665   .debug_str:00000000000009d0 .LASF75
     /tmp/ccuSFo7w.s:3351   .debug_str:0000000000000058 .LASF76
     /tmp/ccuSFo7w.s:3397   .debug_str:00000000000001d3 .LASF77
     /tmp/ccuSFo7w.s:3779   .debug_str:0000000000000e28 .LASF78
     /tmp/ccuSFo7w.s:3597   .debug_str:00000000000007c2 .LASF79
     /tmp/ccuSFo7w.s:3433   .debug_str:00000000000002f1 .LASF80
     /tmp/ccuSFo7w.s:3467   .debug_str:00000000000003e0 .LASF81
     /tmp/ccuSFo7w.s:3345   .debug_str:0000000000000037 .LASF82
     /tmp/ccuSFo7w.s:3725   .debug_str:0000000000000c79 .LASF83
     /tmp/ccuSFo7w.s:3693   .debug_str:0000000000000ac1 .LASF84
     /tmp/ccuSFo7w.s:3421   .debug_str:0000000000000289 .LASF94
     /tmp/ccuSFo7w.s:3701   .debug_str:0000000000000aea .LASF96
     /tmp/ccuSFo7w.s:3411   .debug_str:000000000000022f .LASF86
     /tmp/ccuSFo7w.s:3493   .debug_str:00000000000004a9 .LASF88
     /tmp/ccuSFo7w.s:3763   .debug_str:0000000000000d98 .LASF89
     /tmp/ccuSFo7w.s:3647   .debug_str:0000000000000943 .LASF90
     /tmp/ccuSFo7w.s:3719   .debug_str:0000000000000c4a .LASF91
     /tmp/ccuSFo7w.s:3589   .debug_str:0000000000000796 .LASF92
     /tmp/ccuSFo7w.s:3643   .debug_str:0000000000000925 .LASF93
     /tmp/ccuSFo7w.s:3379   .debug_str:0000000000000133 .LASF95
     /tmp/ccuSFo7w.s:3753   .debug_str:0000000000000d44 .LASF97
     /tmp/ccuSFo7w.s:3413   .debug_str:000000000000023d .LASF98
     /tmp/ccuSFo7w.s:3561   .debug_str:00000000000006cf .LASF99
     /tmp/ccuSFo7w.s:3517   .debug_str:0000000000000578 .LASF100
     /tmp/ccuSFo7w.s:3409   .debug_str:0000000000000227 .LASF101
     /tmp/ccuSFo7w.s:3673   .debug_str:0000000000000a28 .LASF102
     /tmp/ccuSFo7w.s:3465   .debug_str:00000000000003d6 .LASF103
     /tmp/ccuSFo7w.s:3611   .debug_str:000000000000083f .LASF104
     /tmp/ccuSFo7w.s:3377   .debug_str:0000000000000125 .LASF105
     /tmp/ccuSFo7w.s:3507   .debug_str:0000000000000520 .LASF106
     /tmp/ccuSFo7w.s:3341   .debug_str:000000000000000a .LASF107
     /tmp/ccuSFo7w.s:3435   .debug_str:000000000000030e .LASF108
GAS LISTING /tmp/ccuSFo7w.s 			page 17


     /tmp/ccuSFo7w.s:3661   .debug_str:00000000000009ba .LASF109
     /tmp/ccuSFo7w.s:3505   .debug_str:0000000000000513 .LASF110
     /tmp/ccuSFo7w.s:3541   .debug_str:0000000000000636 .LASF111
     /tmp/ccuSFo7w.s:3471   .debug_str:000000000000040b .LASF112
     /tmp/ccuSFo7w.s:3549   .debug_str:000000000000067b .LASF113
     /tmp/ccuSFo7w.s:3639   .debug_str:000000000000090c .LASF114
     /tmp/ccuSFo7w.s:3781   .debug_str:0000000000000e3b .LASF115
     /tmp/ccuSFo7w.s:3747   .debug_str:0000000000000d2b .LASF116
     /tmp/ccuSFo7w.s:3755   .debug_str:0000000000000d61 .LASF117
     /tmp/ccuSFo7w.s:3361   .debug_str:000000000000009b .LASF118
     /tmp/ccuSFo7w.s:3641   .debug_str:0000000000000917 .LASF119
     /tmp/ccuSFo7w.s:3431   .debug_str:00000000000002d6 .LASF120
     /tmp/ccuSFo7w.s:3495   .debug_str:00000000000004d5 .LASF121
     /tmp/ccuSFo7w.s:3735   .debug_str:0000000000000cc5 .LASF122
     /tmp/ccuSFo7w.s:3479   .debug_str:000000000000043a .LASF123
     /tmp/ccuSFo7w.s:3485   .debug_str:0000000000000471 .LASF124
     /tmp/ccuSFo7w.s:3729   .debug_str:0000000000000c96 .LASF125
     /tmp/ccuSFo7w.s:3727   .debug_str:0000000000000c81 .LASF126
     /tmp/ccuSFo7w.s:3783   .debug_str:0000000000000e44 .LASF127
     /tmp/ccuSFo7w.s:3579   .debug_str:0000000000000747 .LASF128
     /tmp/ccuSFo7w.s:3751   .debug_str:0000000000000d3a .LASF129
     /tmp/ccuSFo7w.s:3761   .debug_str:0000000000000d82 .LASF130
     /tmp/ccuSFo7w.s:3743   .debug_str:0000000000000d18 .LASF131
     /tmp/ccuSFo7w.s:3359   .debug_str:0000000000000085 .LASF132
     /tmp/ccuSFo7w.s:3599   .debug_str:00000000000007d0 .LASF133
     /tmp/ccuSFo7w.s:3601   .debug_str:00000000000007d7 .LASF134
     /tmp/ccuSFo7w.s:3569   .debug_str:00000000000006fd .LASF135
     /tmp/ccuSFo7w.s:3519   .debug_str:0000000000000582 .LASF136
     /tmp/ccuSFo7w.s:3759   .debug_str:0000000000000d7a .LASF137
     /tmp/ccuSFo7w.s:3717   .debug_str:0000000000000c36 .LASF138
     /tmp/ccuSFo7w.s:3565   .debug_str:00000000000006f0 .LASF139
     /tmp/ccuSFo7w.s:3577   .debug_str:0000000000000733 .LASF140
     /tmp/ccuSFo7w.s:3537   .debug_str:0000000000000628 .LASF141
     /tmp/ccuSFo7w.s:3605   .debug_str:00000000000007fa .LASF142
     /tmp/ccuSFo7w.s:3785   .debug_str:0000000000000e4d .LASF143
     /tmp/ccuSFo7w.s:3499   .debug_str:00000000000004e8 .LASF144
     /tmp/ccuSFo7w.s:3677   .debug_str:0000000000000a39 .LASF145
     /tmp/ccuSFo7w.s:3637   .debug_str:00000000000008f9 .LASF146
     /tmp/ccuSFo7w.s:3477   .debug_str:0000000000000433 .LASF147
     /tmp/ccuSFo7w.s:3395   .debug_str:00000000000001c0 .LASF148
     /tmp/ccuSFo7w.s:3663   .debug_str:00000000000009c9 .LASF149
     /tmp/ccuSFo7w.s:3631   .debug_str:00000000000008ca .LASF150
     /tmp/ccuSFo7w.s:3453   .debug_str:0000000000000372 .LASF151
     /tmp/ccuSFo7w.s:3387   .debug_str:0000000000000189 .LASF152
     /tmp/ccuSFo7w.s:3357   .debug_str:000000000000007a .LASF153
     /tmp/ccuSFo7w.s:3627   .debug_str:00000000000008a9 .LASF154
     /tmp/ccuSFo7w.s:3621   .debug_str:0000000000000886 .LASF155
     /tmp/ccuSFo7w.s:3773   .debug_str:0000000000000dfd .LASF156
     /tmp/ccuSFo7w.s:3423   .debug_str:0000000000000292 .LASF157
     /tmp/ccuSFo7w.s:3483   .debug_str:000000000000045f .LASF158
     /tmp/ccuSFo7w.s:3497   .debug_str:00000000000004e2 .LASF159
     /tmp/ccuSFo7w.s:3415   .debug_str:0000000000000249 .LASF160
     /tmp/ccuSFo7w.s:3615   .debug_str:000000000000084f .LASF218
     /tmp/ccuSFo7w.s:3463   .debug_str:00000000000003bc .LASF219
     /tmp/ccuSFo7w.s:3405   .debug_str:0000000000000209 .LASF161
     /tmp/ccuSFo7w.s:3563   .debug_str:00000000000006d9 .LASF162
     /tmp/ccuSFo7w.s:3575   .debug_str:0000000000000724 .LASF163
GAS LISTING /tmp/ccuSFo7w.s 			page 18


     /tmp/ccuSFo7w.s:3521   .debug_str:0000000000000595 .LASF164
     /tmp/ccuSFo7w.s:3559   .debug_str:00000000000006c8 .LASF165
     /tmp/ccuSFo7w.s:3533   .debug_str:00000000000005f1 .LASF166
     /tmp/ccuSFo7w.s:3475   .debug_str:000000000000042e .LASF167
     /tmp/ccuSFo7w.s:3481   .debug_str:0000000000000445 .LASF168
     /tmp/ccuSFo7w.s:3617   .debug_str:000000000000085a .LASF169
     /tmp/ccuSFo7w.s:3771   .debug_str:0000000000000de5 .LASF170
     /tmp/ccuSFo7w.s:3607   .debug_str:000000000000080e .LASF171
     /tmp/ccuSFo7w.s:3571   .debug_str:0000000000000704 .LASF172
     /tmp/ccuSFo7w.s:3609   .debug_str:0000000000000825 .LASF173
     /tmp/ccuSFo7w.s:3553   .debug_str:0000000000000690 .LASF174
     /tmp/ccuSFo7w.s:3425   .debug_str:0000000000000298 .LASF175
     /tmp/ccuSFo7w.s:3437   .debug_str:000000000000031b .LASF176
     /tmp/ccuSFo7w.s:3555   .debug_str:00000000000006aa .LASF177
     /tmp/ccuSFo7w.s:3655   .debug_str:0000000000000996 .LASF178
     /tmp/ccuSFo7w.s:3675   .debug_str:0000000000000a34 .LASF179
     /tmp/ccuSFo7w.s:3567   .debug_str:00000000000006f8 .LASF180
     /tmp/ccuSFo7w.s:3703   .debug_str:0000000000000b01 .LASF181
     /tmp/ccuSFo7w.s:3683   .debug_str:0000000000000a59 .LASF182
     /tmp/ccuSFo7w.s:3737   .debug_str:0000000000000cdf .LASF183
     /tmp/ccuSFo7w.s:3363   .debug_str:00000000000000b7 .LASF184
     /tmp/ccuSFo7w.s:3491   .debug_str:00000000000004a3 .LASF185
     /tmp/ccuSFo7w.s:3399   .debug_str:00000000000001e6 .LASF186
     /tmp/ccuSFo7w.s:3593   .debug_str:00000000000007b3 .LASF187
     /tmp/ccuSFo7w.s:3545   .debug_str:000000000000064b .LASF188
     /tmp/ccuSFo7w.s:3657   .debug_str:000000000000099d .LASF189
     /tmp/ccuSFo7w.s:3685   .debug_str:0000000000000a62 .LASF190
     /tmp/ccuSFo7w.s:3749   .debug_str:0000000000000d31 .LASF191
     /tmp/ccuSFo7w.s:3687   .debug_str:0000000000000a84 .LASF192
     /tmp/ccuSFo7w.s:3629   .debug_str:00000000000008c1 .LASF193
     /tmp/ccuSFo7w.s:3689   .debug_str:0000000000000a9d .LASF194
     /tmp/ccuSFo7w.s:3439   .debug_str:000000000000032a .LASF195
     /tmp/ccuSFo7w.s:3373   .debug_str:0000000000000105 .LASF196
     /tmp/ccuSFo7w.s:3473   .debug_str:0000000000000416 .LASF197
     /tmp/ccuSFo7w.s:3511   .debug_str:0000000000000549 .LASF198
     /tmp/ccuSFo7w.s:3367   .debug_str:00000000000000ed .LASF199
     /tmp/ccuSFo7w.s:3723   .debug_str:0000000000000c70 .LASF200
     /tmp/ccuSFo7w.s:3757   .debug_str:0000000000000d70 .LASF201
     /tmp/ccuSFo7w.s:3613   .debug_str:0000000000000849 .LASF202
     /tmp/ccuSFo7w.s:3451   .debug_str:000000000000036d .LASF203
     /tmp/ccuSFo7w.s:195    .text:0000000000000000 .LFB28
     /tmp/ccuSFo7w.s:380    .text:000000000000017c .LFE28
     /tmp/ccuSFo7w.s:3595   .debug_str:00000000000007b9 .LASF204
     /tmp/ccuSFo7w.s:3487   .debug_str:0000000000000489 .LASF205
     /tmp/ccuSFo7w.s:3543   .debug_str:0000000000000643 .LASF206
     /tmp/ccuSFo7w.s:320    .text:000000000000011c .LBB19
     /tmp/ccuSFo7w.s:338    .text:000000000000013c .LBE19
     /tmp/ccuSFo7w.s:3285   .debug_loc:0000000000000000 .LLST2
     /tmp/ccuSFo7w.s:3669   .debug_str:00000000000009f9 .LASF207
     /tmp/ccuSFo7w.s:3349   .debug_str:000000000000004c .LASF220
     /tmp/ccuSFo7w.s:3293   .debug_loc:0000000000000024 .LLST3
     /tmp/ccuSFo7w.s:3339   .debug_str:0000000000000000 .LASF208
     /tmp/ccuSFo7w.s:330    .text:0000000000000130 .LVL31
     /tmp/ccuSFo7w.s:214    .text:000000000000001c .LBB17
     /tmp/ccuSFo7w.s:226    .text:0000000000000020 .LBE17
     /tmp/ccuSFo7w.s:352    .text:0000000000000154 .LBB20
     /tmp/ccuSFo7w.s:366    .text:0000000000000168 .LBE20
GAS LISTING /tmp/ccuSFo7w.s 			page 19


     /tmp/ccuSFo7w.s:230    .text:0000000000000028 .LVL17
     /tmp/ccuSFo7w.s:234    .text:0000000000000030 .LVL18
     /tmp/ccuSFo7w.s:238    .text:0000000000000038 .LVL19
     /tmp/ccuSFo7w.s:248    .text:0000000000000054 .LVL20
     /tmp/ccuSFo7w.s:255    .text:0000000000000064 .LVL21
     /tmp/ccuSFo7w.s:263    .text:0000000000000084 .LVL22
     /tmp/ccuSFo7w.s:270    .text:0000000000000094 .LVL23
     /tmp/ccuSFo7w.s:278    .text:00000000000000b4 .LVL24
     /tmp/ccuSFo7w.s:285    .text:00000000000000c4 .LVL25
     /tmp/ccuSFo7w.s:293    .text:00000000000000e4 .LVL26
     /tmp/ccuSFo7w.s:305    .text:0000000000000104 .LVL27
     /tmp/ccuSFo7w.s:311    .text:000000000000010c .LVL28
     /tmp/ccuSFo7w.s:317    .text:0000000000000118 .LVL29
     /tmp/ccuSFo7w.s:342    .text:0000000000000144 .LVL33
     /tmp/ccuSFo7w.s:346    .text:000000000000014c .LVL34
     /tmp/ccuSFo7w.s:350    .text:0000000000000154 .LVL35
     /tmp/ccuSFo7w.s:11     .text._ZN8ConsoleK12deInitializeEv:0000000000000000 .LFB27
     /tmp/ccuSFo7w.s:188    .text._ZN8ConsoleK12deInitializeEv:0000000000000154 .LFE27
     /tmp/ccuSFo7w.s:33     .text._ZN8ConsoleK12deInitializeEv:0000000000000028 .LBB13
     /tmp/ccuSFo7w.s:79     .text._ZN8ConsoleK12deInitializeEv:0000000000000074 .LBE13
     /tmp/ccuSFo7w.s:3300   .debug_loc:0000000000000047 .LLST0
     /tmp/ccuSFo7w.s:76     .text._ZN8ConsoleK12deInitializeEv:0000000000000074 .LVL4
     /tmp/ccuSFo7w.s:93     .text._ZN8ConsoleK12deInitializeEv:0000000000000094 .LBB15
     /tmp/ccuSFo7w.s:138    .text._ZN8ConsoleK12deInitializeEv:00000000000000e0 .LBE15
     /tmp/ccuSFo7w.s:3307   .debug_loc:000000000000006a .LLST1
     /tmp/ccuSFo7w.s:135    .text._ZN8ConsoleK12deInitializeEv:00000000000000e0 .LVL10
     /tmp/ccuSFo7w.s:83     .text._ZN8ConsoleK12deInitializeEv:0000000000000080 .LVL5
     /tmp/ccuSFo7w.s:142    .text._ZN8ConsoleK12deInitializeEv:00000000000000ec .LVL11
     /tmp/ccuSFo7w.s:175    .text._ZN8ConsoleK12deInitializeEv:0000000000000140 .LVL14
     /tmp/ccuSFo7w.s:3449   .debug_str:0000000000000368 .LASF209
     /tmp/ccuSFo7w.s:3353   .debug_str:0000000000000069 .LASF210
     /tmp/ccuSFo7w.s:3705   .debug_str:0000000000000b06 .LASF221
     /tmp/ccuSFo7w.s:3539   .debug_str:0000000000000630 .LASF222
     /tmp/ccuSFo7w.s:3581   .debug_str:000000000000075c .LASF223
     /tmp/ccuSFo7w.s:324    .text:0000000000000124 .LVL30
     /tmp/ccuSFo7w.s:375    .text:0000000000000174 .LVL36
     /tmp/ccuSFo7w.s:32     .text._ZN8ConsoleK12deInitializeEv:0000000000000028 .LVL0
     /tmp/ccuSFo7w.s:92     .text._ZN8ConsoleK12deInitializeEv:0000000000000094 .LVL6
     /tmp/ccuSFo7w.s:388    .debug_info:0000000000000000 .Ldebug_info0
     /tmp/ccuSFo7w.s:5      .text:0000000000000000 .Ltext0
     /tmp/ccuSFo7w.s:382    .text:000000000000017c .Letext0

UNDEFINED SYMBOLS
_ZN8ConsoleK8instanceE
_ZdlPv
_ZN13BoundedBufferdlEPv
_ZN15MemoryAllocator9kmem_freeEPv
_ZN5Riscv14supervisorTrapEv
_ZN15MemoryAllocator10initializeEv
_ZN9Scheduler10initializeEv
_ZN8ConsoleK10initializeEv
_ZN7ThreadK12createThreadEPFvPvES0_Pmbb
_ZN15MemoryAllocator10kmem_allocEm
_Z8userMainv
_ZN8ConsoleK8producerEPv
_ZN8ConsoleK8consumerEPv
_ZN7ThreadK7runningE
GAS LISTING /tmp/ccuSFo7w.s 			page 20


_ZN7ThreadK4joinEv
_ZN8ConsoleK8finishedEv
_ZN7ThreadK5yieldEv
_ZN7ThreadK4killEv
_ZN7ThreadK13deleteThreadsEv
_ZN9Scheduler12deInitializeEv
_ZN15MemoryAllocator8instanceE
