GAS LISTING /tmp/ccgiFy3I.s 			page 1


   1              		.file	"Riscv.cpp"
   2              		.option pic
   3              		.option norelax
   4              		.text
   5              	.Ltext0:
   6              		.section	.rodata.str1.8,"aMS",@progbits,1
   7              		.align	3
   8              	.LC0:
   9 0000 756E6578 		.string	"unexpected exception\n"
   9      70656374 
   9      65642065 
   9      78636570 
   9      74696F6E 
  10              		.text
  11              		.align	2
  12              		.globl	_ZN5Riscv10handleTrapEiPv
  14              	_ZN5Riscv10handleTrapEiPv:
  15              	.LFB28:
  16              		.file 1 "src/Riscv.cpp"
   1:src/Riscv.cpp **** //
   2:src/Riscv.cpp **** // Created by os on 5/15/22.
   3:src/Riscv.cpp **** //
   4:src/Riscv.cpp **** 
   5:src/Riscv.cpp **** #include "../h/Riscv.hpp"
   6:src/Riscv.cpp **** //#include "../h/MemoryAllocator.hpp"
   7:src/Riscv.cpp **** //#include "../h/ThreadK.hpp"
   8:src/Riscv.cpp **** #include "../h/ConsoleK.hpp"
   9:src/Riscv.cpp **** 
  10:src/Riscv.cpp **** void Riscv::handleTrap(int code, void *args) {
  17              		.loc 1 10 46
  18              		.cfi_startproc
  19              	.LVL0:
  20 0000 130101F0 		addi	sp,sp,-256
  21              		.cfi_def_cfa_offset 256
  22 0004 233C110E 		sd	ra,248(sp)
  23 0008 2338810E 		sd	s0,240(sp)
  24 000c 2334910E 		sd	s1,232(sp)
  25 0010 2330210F 		sd	s2,224(sp)
  26 0014 233C310D 		sd	s3,216(sp)
  27 0018 2338410D 		sd	s4,208(sp)
  28 001c 2334510D 		sd	s5,200(sp)
  29              		.cfi_offset 1, -8
  30              		.cfi_offset 8, -16
  31              		.cfi_offset 9, -24
  32              		.cfi_offset 18, -32
  33              		.cfi_offset 19, -40
  34              		.cfi_offset 20, -48
  35              		.cfi_offset 21, -56
  36 0020 13040110 		addi	s0,sp,256
  37              		.cfi_def_cfa 8, 0
  38 0024 93040500 		mv	s1,a0
  11:src/Riscv.cpp ****     uint64 *realargs = (uint64 *) args;
  39              		.loc 1 11 5
  40              	.LVL1:
  12:src/Riscv.cpp ****     void *retval = nullptr;
  41              		.loc 1 12 5
  13:src/Riscv.cpp ****     uint64 volatile scause = Riscv::r_scause();
GAS LISTING /tmp/ccgiFy3I.s 			page 2


  42              		.loc 1 13 5
  43              	.LBB80:
  44              	.LBB81:
  45              		.file 2 "src/../h/Riscv.hpp"
   1:src/../h/Riscv.hpp **** //
   2:src/../h/Riscv.hpp **** // Created by os on 5/15/22.
   3:src/../h/Riscv.hpp **** //
   4:src/../h/Riscv.hpp **** 
   5:src/../h/Riscv.hpp **** #ifndef PROJECT_BASE_V1_0_RISCV_HPP
   6:src/../h/Riscv.hpp **** #define PROJECT_BASE_V1_0_RISCV_HPP
   7:src/../h/Riscv.hpp **** 
   8:src/../h/Riscv.hpp **** #include "../lib/hw.h"
   9:src/../h/Riscv.hpp **** #include "../test/printing.hpp"
  10:src/../h/Riscv.hpp **** 
  11:src/../h/Riscv.hpp **** 
  12:src/../h/Riscv.hpp **** class Riscv {
  13:src/../h/Riscv.hpp **** public:
  14:src/../h/Riscv.hpp ****     static void* supervisorTrap();
  15:src/../h/Riscv.hpp **** 
  16:src/../h/Riscv.hpp ****     static void pushRegisters();
  17:src/../h/Riscv.hpp **** 
  18:src/../h/Riscv.hpp ****     static void popRegisters();
  19:src/../h/Riscv.hpp **** 
  20:src/../h/Riscv.hpp ****     static void popSppSpie();//ne sme biti inline funkcija
  21:src/../h/Riscv.hpp **** 
  22:src/../h/Riscv.hpp ****     //Functions to read and write to system registers
  23:src/../h/Riscv.hpp ****     static uint64 r_scause();
  24:src/../h/Riscv.hpp **** 
  25:src/../h/Riscv.hpp ****     void w_scause(uint64 sepc);
  26:src/../h/Riscv.hpp **** 
  27:src/../h/Riscv.hpp ****     static uint64 r_sstatus();
  28:src/../h/Riscv.hpp **** 
  29:src/../h/Riscv.hpp ****     static void w_sstatus(uint64 sstatus);
  30:src/../h/Riscv.hpp **** 
  31:src/../h/Riscv.hpp ****     static uint64 r_sepc();
  32:src/../h/Riscv.hpp **** 
  33:src/../h/Riscv.hpp ****     static void w_sepc(uint64 sepc);
  34:src/../h/Riscv.hpp **** 
  35:src/../h/Riscv.hpp ****     static uint64 r_stvec();
  36:src/../h/Riscv.hpp **** 
  37:src/../h/Riscv.hpp ****     static void w_stvec(uint64 sepc);
  38:src/../h/Riscv.hpp **** 
  39:src/../h/Riscv.hpp ****     static uint64 r_stval();
  40:src/../h/Riscv.hpp **** 
  41:src/../h/Riscv.hpp ****     static void w_stval(uint64 sepc);
  42:src/../h/Riscv.hpp **** 
  43:src/../h/Riscv.hpp ****     enum BitMaskSip{
  44:src/../h/Riscv.hpp ****         SIP_SSIP = (1 << 1),
  45:src/../h/Riscv.hpp ****         SIP_STIP = (1 << 5),
  46:src/../h/Riscv.hpp ****         SIP_SEIP = (1 << 9)
  47:src/../h/Riscv.hpp ****     };
  48:src/../h/Riscv.hpp **** 
  49:src/../h/Riscv.hpp ****     static void ms_sip(uint64 sepc);
  50:src/../h/Riscv.hpp **** 
  51:src/../h/Riscv.hpp ****     static void mc_sip(uint64 sepc);
  52:src/../h/Riscv.hpp **** 
  53:src/../h/Riscv.hpp ****     enum BitMaskSstatus{
GAS LISTING /tmp/ccgiFy3I.s 			page 3


  54:src/../h/Riscv.hpp ****         SSTATUS_SIE = (1 << 1),
  55:src/../h/Riscv.hpp ****         SSTATUS_SPIE = (1 << 5),
  56:src/../h/Riscv.hpp ****         SSTATUS_SPP = (1 << 8)
  57:src/../h/Riscv.hpp ****     };
  58:src/../h/Riscv.hpp **** 
  59:src/../h/Riscv.hpp ****     static void ms_sie(uint64 sepc);
  60:src/../h/Riscv.hpp **** 
  61:src/../h/Riscv.hpp ****     static void mc_sie(uint64 sepc);
  62:src/../h/Riscv.hpp **** 
  63:src/../h/Riscv.hpp ****     static void ms_sstatus(uint64 sepc);
  64:src/../h/Riscv.hpp **** 
  65:src/../h/Riscv.hpp ****     static void mc_sstatus(uint64 sepc);
  66:src/../h/Riscv.hpp **** 
  67:src/../h/Riscv.hpp ****     static uint64 r_sip();
  68:src/../h/Riscv.hpp **** 
  69:src/../h/Riscv.hpp ****     static void w_sip(uint64 sepc);
  70:src/../h/Riscv.hpp **** 
  71:src/../h/Riscv.hpp **** private:
  72:src/../h/Riscv.hpp ****     static void handleTrap(int,void*);
  73:src/../h/Riscv.hpp **** };
  74:src/../h/Riscv.hpp **** inline uint64 Riscv::r_scause() {
  75:src/../h/Riscv.hpp ****     uint64 volatile scause;
  46              		.loc 2 75 5
  76:src/../h/Riscv.hpp ****     __asm__ volatile ("csrr %[scause], scause" :  [scause] "=r" (scause));
  47              		.loc 2 76 5
  48              		.loc 2 76 74 is_stmt 0
  49              	#APP
  50              	# 76 "src/../h/Riscv.hpp" 1
  77              	    return scause;
  51              		csrr a5, scause
  52              	# 0 "" 2
  53              	#NO_APP
  54 002c 233CF4F4 		sd	a5,-168(s0)
  55              		.loc 2 77 5 is_stmt 1
  56              		.loc 2 77 12 is_stmt 0
  57 0030 833784F5 		ld	a5,-168(s0)
  58              	.LBE81:
  59              	.LBE80:
  60              		.loc 1 13 46
  61 0034 233CF4FA 		sd	a5,-72(s0)
  14:src/Riscv.cpp ****     if (scause == 0x09 || scause == 0x08) {
  62              		.loc 1 14 5 is_stmt 1
  63              	.LBB82:
  64              		.loc 1 14 16 is_stmt 0
  65 0038 033784FB 		ld	a4,-72(s0)
  66              		.loc 1 14 24
  67 003c 93079000 		li	a5,9
  68 0040 6306F708 		beq	a4,a5,.L2
  69              		.loc 1 14 34 discriminator 2
  70 0044 033784FB 		ld	a4,-72(s0)
  71              		.loc 1 14 24 discriminator 2
  72 0048 93078000 		li	a5,8
  73 004c 6300F708 		beq	a4,a5,.L2
  74              	.LBE82:
  15:src/Riscv.cpp ****         uint64 volatile sepc = Riscv::r_sepc();
  16:src/Riscv.cpp ****         Riscv::w_sepc(sepc + 4);
  17:src/Riscv.cpp ****         //razgranati skok na sistemske pozive
GAS LISTING /tmp/ccgiFy3I.s 			page 4


  18:src/Riscv.cpp ****         switch (code) {
  19:src/Riscv.cpp ****             case 0x12: {
  20:src/Riscv.cpp ****                 ThreadK::running->kill();
  21:src/Riscv.cpp ****             }
  22:src/Riscv.cpp ****             case 0x13: {
  23:src/Riscv.cpp ****                 uint64 volatile sepc = r_sepc() + 4;
  24:src/Riscv.cpp ****                 uint64 volatile sstatus = r_sstatus();
  25:src/Riscv.cpp ****                 ThreadK::timeSliceCounter = 0;
  26:src/Riscv.cpp ****                 ThreadK::dispatch();
  27:src/Riscv.cpp ****                 w_sstatus(sstatus);
  28:src/Riscv.cpp ****                 w_sepc(sepc);
  29:src/Riscv.cpp ****                 break;
  30:src/Riscv.cpp ****             }
  31:src/Riscv.cpp ****             case 0x01: {
  32:src/Riscv.cpp ****                 size_t realValue = (size_t) (realargs[0]) * MEM_BLOCK_SIZE; // u bajtovima
  33:src/Riscv.cpp ****                 retval = MemoryAllocator::kmem_alloc(realValue);
  34:src/Riscv.cpp ****                 __asm__ volatile("sd %[retval], 10 * 8(s0)" : : [retval] "r"(retval));
  35:src/Riscv.cpp ****                 break;
  36:src/Riscv.cpp ****             }
  37:src/Riscv.cpp ****             case 0x02: {
  38:src/Riscv.cpp ****                 retval = (void *) (uint64) MemoryAllocator::kmem_free((void *) realargs[0]);
  39:src/Riscv.cpp ****                 __asm__ volatile("sd %[retval], 10 * 8(s0)" : : [retval] "r"(retval));
  40:src/Riscv.cpp ****                 break;
  41:src/Riscv.cpp ****             }
  42:src/Riscv.cpp ****             case 0x14:
  43:src/Riscv.cpp ****             case 0x11: {
  44:src/Riscv.cpp ****                 ThreadK **handle = (ThreadK **) realargs[0];
  45:src/Riscv.cpp ****                 ThreadK::Body start_routine = (ThreadK::Body) realargs[1];
  46:src/Riscv.cpp ****                 void *arg = (void *) realargs[2];
  47:src/Riscv.cpp ****                 uint64 *stack = (uint64 *) realargs[3];
  48:src/Riscv.cpp ****                 if(code == 0x11)
  49:src/Riscv.cpp ****                     *handle = ThreadK::createThread(start_routine, arg, stack, false, false);
  50:src/Riscv.cpp ****                 if(code == 0x14)
  51:src/Riscv.cpp ****                     *handle = ThreadK::createThread(start_routine, arg, stack, false, true);
  52:src/Riscv.cpp ****                 retval = (*handle ? (void *) (uint64) 0 : (void *) (uint64) -1);
  53:src/Riscv.cpp ****                 __asm__ volatile("sd %[retval], 10 * 8(s0)" : : [retval] "r"(retval));
  54:src/Riscv.cpp ****                 break;
  55:src/Riscv.cpp ****             }
  56:src/Riscv.cpp ****             case 0x15:{
  57:src/Riscv.cpp ****                 ThreadK *handle = (ThreadK *) realargs[0];
  58:src/Riscv.cpp ****                 //put it to scheduler
  59:src/Riscv.cpp ****                 if(!handle) {
  60:src/Riscv.cpp ****                     retval = (void *) (uint64) -1;
  61:src/Riscv.cpp ****                     __asm__ volatile("sd %[retval], 10 * 8(s0)" : : [retval] "r"(retval));
  62:src/Riscv.cpp ****                     break;
  63:src/Riscv.cpp ****                 }
  64:src/Riscv.cpp ****                 Scheduler::put(handle);
  65:src/Riscv.cpp ****                 retval = 0;
  66:src/Riscv.cpp ****                 __asm__ volatile("sd %[retval], 10 * 8(s0)" : : [retval] "r"(retval));
  67:src/Riscv.cpp ****                 break;
  68:src/Riscv.cpp ****             }
  69:src/Riscv.cpp **** 
  70:src/Riscv.cpp ****             case 0x21:{
  71:src/Riscv.cpp ****                 SemaphoreK** handle = (SemaphoreK**) realargs[0];
  72:src/Riscv.cpp ****                 int init = realargs[1];
  73:src/Riscv.cpp ****                 *handle = new SemaphoreK(init);
  74:src/Riscv.cpp ****                 retval = (*handle ? (void *) (uint64) 0 : (void *) (uint64) -1);
GAS LISTING /tmp/ccgiFy3I.s 			page 5


  75:src/Riscv.cpp ****                 __asm__ volatile("sd %[retval], 10 * 8(s0)" : : [retval] "r"(retval));
  76:src/Riscv.cpp ****                 break;
  77:src/Riscv.cpp ****             }
  78:src/Riscv.cpp ****             case 0x22:{
  79:src/Riscv.cpp ****                 SemaphoreK* handle = (SemaphoreK*) realargs[0];
  80:src/Riscv.cpp ****                 if(!handle) {
  81:src/Riscv.cpp ****                     retval = (void *) (uint64) -1;
  82:src/Riscv.cpp ****                     __asm__ volatile("sd %[retval], 10 * 8(s0)" : : [retval] "r"(retval));
  83:src/Riscv.cpp ****                     break;
  84:src/Riscv.cpp ****                 }
  85:src/Riscv.cpp ****                 handle->~SemaphoreK();
  86:src/Riscv.cpp ****                 retval = 0;
  87:src/Riscv.cpp ****                 __asm__ volatile("sd %[retval], 10 * 8(s0)" : : [retval] "r"(retval));
  88:src/Riscv.cpp ****                 break;
  89:src/Riscv.cpp ****             }
  90:src/Riscv.cpp ****             case 0x23:{
  91:src/Riscv.cpp ****                 SemaphoreK* handle = (SemaphoreK*) realargs[0];
  92:src/Riscv.cpp ****                 if(!handle) {
  93:src/Riscv.cpp ****                     retval = (void *) (uint64) -1;
  94:src/Riscv.cpp ****                     __asm__ volatile("sd %[retval], 10 * 8(s0)" : : [retval] "r"(retval));
  95:src/Riscv.cpp ****                     break;
  96:src/Riscv.cpp ****                 }
  97:src/Riscv.cpp ****                 handle->wait();
  98:src/Riscv.cpp ****                 retval = 0;
  99:src/Riscv.cpp ****                 __asm__ volatile("sd %[retval], 10 * 8(s0)" : : [retval] "r"(retval));
 100:src/Riscv.cpp ****                 break;
 101:src/Riscv.cpp ****             }
 102:src/Riscv.cpp ****             case 0x24:{
 103:src/Riscv.cpp ****                 SemaphoreK* handle = (SemaphoreK*) realargs[0];
 104:src/Riscv.cpp ****                 if(!handle) {
 105:src/Riscv.cpp ****                     retval = (void *) (uint64) -1;
 106:src/Riscv.cpp ****                     __asm__ volatile("sd %[retval], 10 * 8(s0)" : : [retval] "r"(retval));
 107:src/Riscv.cpp ****                     break;
 108:src/Riscv.cpp ****                 }
 109:src/Riscv.cpp ****                 handle->signal();
 110:src/Riscv.cpp ****                 retval = 0;
 111:src/Riscv.cpp ****                 __asm__ volatile("sd %[retval], 10 * 8(s0)" : : [retval] "r"(retval));
 112:src/Riscv.cpp ****                 break;
 113:src/Riscv.cpp ****             }
 114:src/Riscv.cpp ****             case 0x31:{
 115:src/Riscv.cpp ****                 uint64 time = realargs[0];
 116:src/Riscv.cpp ****                 if(time == 0){
 117:src/Riscv.cpp ****                     retval = 0;
 118:src/Riscv.cpp ****                     __asm__ volatile("sd %[retval], 10 * 8(s0)" : : [retval] "r"(retval));
 119:src/Riscv.cpp ****                     break;
 120:src/Riscv.cpp ****                 }
 121:src/Riscv.cpp ****                 else{
 122:src/Riscv.cpp ****                     ThreadK::putToSleep(time);
 123:src/Riscv.cpp ****                     uint64 volatile sepc = r_sepc() + 4;
 124:src/Riscv.cpp ****                     uint64 volatile sstatus = r_sstatus();
 125:src/Riscv.cpp ****                     ThreadK::timeSliceCounter = 0;
 126:src/Riscv.cpp ****                     ThreadK::dispatch();
 127:src/Riscv.cpp ****                     w_sstatus(sstatus);
 128:src/Riscv.cpp ****                     w_sepc(sepc);
 129:src/Riscv.cpp ****                     retval = 0;
 130:src/Riscv.cpp ****                     __asm__ volatile("sd %[retval], 10 * 8(s0)" : : [retval] "r"(retval));
 131:src/Riscv.cpp ****                     break;
GAS LISTING /tmp/ccgiFy3I.s 			page 6


 132:src/Riscv.cpp ****                 }
 133:src/Riscv.cpp ****             }
 134:src/Riscv.cpp ****             case 0x41: {
 135:src/Riscv.cpp ****                 uint64 volatile sepc = r_sepc() + 4;
 136:src/Riscv.cpp ****                 uint64 volatile sstatus = r_sstatus();
 137:src/Riscv.cpp ****                 char c = ConsoleK::kgetc();
 138:src/Riscv.cpp ****                 w_sstatus(sstatus);
 139:src/Riscv.cpp ****                 w_sepc(sepc);
 140:src/Riscv.cpp ****                 retval = (void*)((uint64)c);
 141:src/Riscv.cpp ****                 __asm__ volatile("sd %[retval], 10 * 8(s0)" : : [retval] "r"(retval));
 142:src/Riscv.cpp ****                 break;
 143:src/Riscv.cpp ****             }
 144:src/Riscv.cpp ****             case 0x42:{
 145:src/Riscv.cpp ****                 char c = (char)realargs[0];
 146:src/Riscv.cpp ****                 uint64 volatile sepc = r_sepc() + 4;
 147:src/Riscv.cpp ****                 uint64 volatile sstatus = r_sstatus();
 148:src/Riscv.cpp ****                 ConsoleK::kputc(c);
 149:src/Riscv.cpp ****                 w_sstatus(sstatus);
 150:src/Riscv.cpp ****                 w_sepc(sepc);
 151:src/Riscv.cpp ****                 retval = 0;
 152:src/Riscv.cpp ****                 __asm__ volatile("sd %[retval], 10 * 8(s0)" : : [retval] "r"(retval));
 153:src/Riscv.cpp ****                 break;
 154:src/Riscv.cpp ****             }
 155:src/Riscv.cpp ****         }
 156:src/Riscv.cpp **** 
 157:src/Riscv.cpp ****     } else if (scause == 0x8000000000000001UL) {
  75              		.loc 1 157 12 is_stmt 1
  76              	.LBB152:
  77              	.LBB83:
  78              		.loc 1 157 23 is_stmt 0
  79 0050 033784FB 		ld	a4,-72(s0)
  80              		.loc 1 157 12
  81 0054 9307F0FF 		li	a5,-1
  82 0058 9397F703 		slli	a5,a5,63
  83 005c 93871700 		addi	a5,a5,1
  84 0060 630AF73A 		beq	a4,a5,.L36
 158:src/Riscv.cpp ****         ThreadK::timeSliceCounter++;
 159:src/Riscv.cpp ****         //budjenje niti
 160:src/Riscv.cpp ****         if(ThreadK::sleepHead) {
 161:src/Riscv.cpp ****             ThreadK::sleepHead->sleepTime--;
 162:src/Riscv.cpp ****             ThreadK::awake();
 163:src/Riscv.cpp ****         }
 164:src/Riscv.cpp ****         if (ThreadK::timeSliceCounter >= ThreadK::running->timeSlice) {
 165:src/Riscv.cpp ****             uint64 volatile sepc = r_sepc();
 166:src/Riscv.cpp ****             uint64 volatile sstatus = r_sstatus();
 167:src/Riscv.cpp ****             ThreadK::timeSliceCounter = 0;
 168:src/Riscv.cpp ****             ThreadK::dispatch();
 169:src/Riscv.cpp ****             w_sstatus(sstatus);
 170:src/Riscv.cpp ****             w_sepc(sepc);
 171:src/Riscv.cpp ****         }
 172:src/Riscv.cpp ****         mc_sip(SIP_SEIP);
 173:src/Riscv.cpp ****     } else if (scause == 0x8000000000000009UL) {
  85              		.loc 1 173 12 is_stmt 1
  86              		.loc 1 173 23 is_stmt 0
  87 0064 033784FB 		ld	a4,-72(s0)
  88              		.loc 1 173 12
  89 0068 9307F0FF 		li	a5,-1
GAS LISTING /tmp/ccgiFy3I.s 			page 7


  90 006c 9397F703 		slli	a5,a5,63
  91 0070 93879700 		addi	a5,a5,9
  92 0074 6306F744 		beq	a4,a5,.L37
 174:src/Riscv.cpp ****         ConsoleK::k_console_handler();
 175:src/Riscv.cpp ****     } else {
 176:src/Riscv.cpp ****         printString("unexpected exception\n");
  93              		.loc 1 176 9 is_stmt 1
  94              		.loc 1 176 20 is_stmt 0
  95 0078 17050000 		lla	a0,.LC0
  95      13050500 
  96              	.LVL2:
  97 0080 97000000 		call	_Z11printStringPKc@plt
  97      E7800000 
  98              	.LVL3:
 177:src/Riscv.cpp ****         printInt(scause);
  99              		.loc 1 177 9 is_stmt 1
 100              		.loc 1 177 17 is_stmt 0
 101 0088 033584FB 		ld	a0,-72(s0)
 102 008c 13060000 		li	a2,0
 103 0090 9305A000 		li	a1,10
 104 0094 1B050500 		sext.w	a0,a0
 105 0098 97000000 		call	_Z8printIntiii@plt
 105      E7800000 
 106              	.LVL4:
 107              	.L5:
 108              	.LBE83:
 109              	.LBE152:
 178:src/Riscv.cpp ****     }
 179:src/Riscv.cpp ****     //potvrda obrade prekida
 180:src/Riscv.cpp ****     mc_sip(SIP_SSIP);
 110              		.loc 1 180 5 is_stmt 1
 111              	.LBB153:
 112              	.LBB154:
  78:src/../h/Riscv.hpp **** }
  79:src/../h/Riscv.hpp **** 
  80:src/../h/Riscv.hpp **** inline void Riscv::w_scause(uint64 scause){
  81:src/../h/Riscv.hpp ****     __asm__ volatile("csrw scause, %[scause]": : [scause] "r" (scause));
  82:src/../h/Riscv.hpp **** }
  83:src/../h/Riscv.hpp **** 
  84:src/../h/Riscv.hpp **** inline uint64 Riscv::r_sepc() {
  85:src/../h/Riscv.hpp ****     uint64 volatile sepc;
  86:src/../h/Riscv.hpp ****     __asm__ volatile ("csrr %[sepc], sepc" :  [sepc] "=r" (sepc));
  87:src/../h/Riscv.hpp ****     return sepc;
  88:src/../h/Riscv.hpp **** }
  89:src/../h/Riscv.hpp **** 
  90:src/../h/Riscv.hpp **** inline void Riscv::w_sepc(uint64 sepc){
  91:src/../h/Riscv.hpp ****     __asm__ volatile("csrw sepc, %[sepc]": : [sepc] "r" (sepc));
  92:src/../h/Riscv.hpp **** }
  93:src/../h/Riscv.hpp **** 
  94:src/../h/Riscv.hpp **** inline uint64 Riscv::r_stvec() {
  95:src/../h/Riscv.hpp ****     uint64 volatile stvec;
  96:src/../h/Riscv.hpp ****     __asm__ volatile ("csrr %[stvec], stvec" :  [stvec] "=r" (stvec));
  97:src/../h/Riscv.hpp ****     return stvec;
  98:src/../h/Riscv.hpp **** }
  99:src/../h/Riscv.hpp **** 
 100:src/../h/Riscv.hpp **** inline void Riscv::w_stvec(uint64 stvec){
 101:src/../h/Riscv.hpp ****     __asm__ volatile("csrw stvec, %[stvec]": : [stvec] "r" (stvec));
GAS LISTING /tmp/ccgiFy3I.s 			page 8


 102:src/../h/Riscv.hpp **** }
 103:src/../h/Riscv.hpp **** 
 104:src/../h/Riscv.hpp **** inline uint64 Riscv::r_stval() {
 105:src/../h/Riscv.hpp ****     uint64 volatile stval;
 106:src/../h/Riscv.hpp ****     __asm__ volatile ("csrr %[stval], stval" :  [stval] "=r" (stval));
 107:src/../h/Riscv.hpp ****     return stval;
 108:src/../h/Riscv.hpp **** }
 109:src/../h/Riscv.hpp **** 
 110:src/../h/Riscv.hpp **** inline void Riscv::w_stval(uint64 stval){
 111:src/../h/Riscv.hpp ****     __asm__ volatile("csrw stval, %[stval]": : [stval] "r" (stval));
 112:src/../h/Riscv.hpp **** }
 113:src/../h/Riscv.hpp **** 
 114:src/../h/Riscv.hpp **** inline void Riscv::ms_sip(uint64 mask) {
 115:src/../h/Riscv.hpp ****     __asm__ volatile("csrs sip, %[mask]" : : [mask] "r" (mask));
 116:src/../h/Riscv.hpp **** }
 117:src/../h/Riscv.hpp **** 
 118:src/../h/Riscv.hpp **** inline void Riscv::mc_sip(uint64 mask) {
 119:src/../h/Riscv.hpp ****     __asm__ volatile("csrc sip, %[mask]" : : [mask] "r" (mask));
 113              		.loc 2 119 5
 114              		.loc 2 119 64 is_stmt 0
 115 00a0 93072000 		li	a5,2
 116              	#APP
 117              	# 119 "src/../h/Riscv.hpp" 1
 120              	}
 118              		csrc sip, a5
 119              	# 0 "" 2
 120              	.LVL5:
 121              	#NO_APP
 122              	.LBE154:
 123              	.LBE153:
 181:src/Riscv.cpp **** }
 124              		.loc 1 181 1
 125 00a8 8330810F 		ld	ra,248(sp)
 126              		.cfi_remember_state
 127              		.cfi_restore 1
 128 00ac 0334010F 		ld	s0,240(sp)
 129              		.cfi_restore 8
 130              		.cfi_def_cfa 2, 256
 131 00b0 8334810E 		ld	s1,232(sp)
 132              		.cfi_restore 9
 133 00b4 0339010E 		ld	s2,224(sp)
 134              		.cfi_restore 18
 135 00b8 8339810D 		ld	s3,216(sp)
 136              		.cfi_restore 19
 137 00bc 033A010D 		ld	s4,208(sp)
 138              		.cfi_restore 20
 139 00c0 833A810C 		ld	s5,200(sp)
 140              		.cfi_restore 21
 141 00c4 13010110 		addi	sp,sp,256
 142              		.cfi_def_cfa_offset 0
 143 00c8 67800000 		jr	ra
 144              	.LVL6:
 145              	.L2:
 146              		.cfi_restore_state
 147              	.LBB155:
 148              	.LBB98:
  15:src/Riscv.cpp ****         Riscv::w_sepc(sepc + 4);
GAS LISTING /tmp/ccgiFy3I.s 			page 9


 149              		.loc 1 15 9 is_stmt 1
 150              	.LBB99:
 151              	.LBB100:
  85:src/../h/Riscv.hpp ****     __asm__ volatile ("csrr %[sepc], sepc" :  [sepc] "=r" (sepc));
 152              		.loc 2 85 5
  86:src/../h/Riscv.hpp ****     return sepc;
 153              		.loc 2 86 5
  86:src/../h/Riscv.hpp ****     return sepc;
 154              		.loc 2 86 66 is_stmt 0
 155              	#APP
 156              	# 86 "src/../h/Riscv.hpp" 1
 157              		csrr a5, sepc
 158              	# 0 "" 2
 159              	#NO_APP
 160 00d0 2330F4F6 		sd	a5,-160(s0)
  87:src/../h/Riscv.hpp **** }
 161              		.loc 2 87 5 is_stmt 1
  87:src/../h/Riscv.hpp **** }
 162              		.loc 2 87 12 is_stmt 0
 163 00d4 833704F6 		ld	a5,-160(s0)
 164              	.LBE100:
 165              	.LBE99:
  15:src/Riscv.cpp ****         Riscv::w_sepc(sepc + 4);
 166              		.loc 1 15 46
 167 00d8 2330F4F0 		sd	a5,-256(s0)
  16:src/Riscv.cpp ****         //razgranati skok na sistemske pozive
 168              		.loc 1 16 9 is_stmt 1
  16:src/Riscv.cpp ****         //razgranati skok na sistemske pozive
 169              		.loc 1 16 23 is_stmt 0
 170 00dc 833704F0 		ld	a5,-256(s0)
  16:src/Riscv.cpp ****         //razgranati skok na sistemske pozive
 171              		.loc 1 16 22
 172 00e0 93874700 		addi	a5,a5,4
 173              	.LVL7:
 174              	.LBB101:
 175              	.LBB102:
  91:src/../h/Riscv.hpp **** }
 176              		.loc 2 91 5 is_stmt 1
  91:src/../h/Riscv.hpp **** }
 177              		.loc 2 91 64 is_stmt 0
 178              	#APP
 179              	# 91 "src/../h/Riscv.hpp" 1
 180              		csrw sepc, a5
 181              	# 0 "" 2
 182              	.LVL8:
 183              	#NO_APP
 184              	.LBE102:
 185              	.LBE101:
  18:src/Riscv.cpp ****             case 0x12: {
 186              		.loc 1 18 9 is_stmt 1
 187 00e8 93072004 		li	a5,66
 188 00ec E3EA97FA 		bgtu	s1,a5,.L5
 189 00f0 13972400 		slli	a4,s1,2
 190 00f4 97060000 		lla	a3,.L7
 190      93860600 
 191 00fc 3307D700 		add	a4,a4,a3
 192 0100 83270700 		lw	a5,0(a4)
GAS LISTING /tmp/ccgiFy3I.s 			page 10


 193 0104 B387D700 		add	a5,a5,a3
 194 0108 67800700 		jr	a5
 195              		.section	.rodata
 196              		.align	2
 197              		.align	2
 198              	.L7:
 199 0000 00000000 		.word	.L5-.L7
 200 0004 00000000 		.word	.L19-.L7
 201 0008 00000000 		.word	.L18-.L7
 202 000c 00000000 		.word	.L5-.L7
 203 0010 00000000 		.word	.L5-.L7
 204 0014 00000000 		.word	.L5-.L7
 205 0018 00000000 		.word	.L5-.L7
 206 001c 00000000 		.word	.L5-.L7
 207 0020 00000000 		.word	.L5-.L7
 208 0024 00000000 		.word	.L5-.L7
 209 0028 00000000 		.word	.L5-.L7
 210 002c 00000000 		.word	.L5-.L7
 211 0030 00000000 		.word	.L5-.L7
 212 0034 00000000 		.word	.L5-.L7
 213 0038 00000000 		.word	.L5-.L7
 214 003c 00000000 		.word	.L5-.L7
 215 0040 00000000 		.word	.L5-.L7
 216 0044 00000000 		.word	.L15-.L7
 217 0048 00000000 		.word	.L17-.L7
 218 004c 00000000 		.word	.L16-.L7
 219 0050 00000000 		.word	.L15-.L7
 220 0054 00000000 		.word	.L14-.L7
 221 0058 00000000 		.word	.L5-.L7
 222 005c 00000000 		.word	.L5-.L7
 223 0060 00000000 		.word	.L5-.L7
 224 0064 00000000 		.word	.L5-.L7
 225 0068 00000000 		.word	.L5-.L7
 226 006c 00000000 		.word	.L5-.L7
 227 0070 00000000 		.word	.L5-.L7
 228 0074 00000000 		.word	.L5-.L7
 229 0078 00000000 		.word	.L5-.L7
 230 007c 00000000 		.word	.L5-.L7
 231 0080 00000000 		.word	.L5-.L7
 232 0084 00000000 		.word	.L13-.L7
 233 0088 00000000 		.word	.L12-.L7
 234 008c 00000000 		.word	.L11-.L7
 235 0090 00000000 		.word	.L10-.L7
 236 0094 00000000 		.word	.L5-.L7
 237 0098 00000000 		.word	.L5-.L7
 238 009c 00000000 		.word	.L5-.L7
 239 00a0 00000000 		.word	.L5-.L7
 240 00a4 00000000 		.word	.L5-.L7
 241 00a8 00000000 		.word	.L5-.L7
 242 00ac 00000000 		.word	.L5-.L7
 243 00b0 00000000 		.word	.L5-.L7
 244 00b4 00000000 		.word	.L5-.L7
 245 00b8 00000000 		.word	.L5-.L7
 246 00bc 00000000 		.word	.L5-.L7
 247 00c0 00000000 		.word	.L5-.L7
 248 00c4 00000000 		.word	.L9-.L7
 249 00c8 00000000 		.word	.L5-.L7
GAS LISTING /tmp/ccgiFy3I.s 			page 11


 250 00cc 00000000 		.word	.L5-.L7
 251 00d0 00000000 		.word	.L5-.L7
 252 00d4 00000000 		.word	.L5-.L7
 253 00d8 00000000 		.word	.L5-.L7
 254 00dc 00000000 		.word	.L5-.L7
 255 00e0 00000000 		.word	.L5-.L7
 256 00e4 00000000 		.word	.L5-.L7
 257 00e8 00000000 		.word	.L5-.L7
 258 00ec 00000000 		.word	.L5-.L7
 259 00f0 00000000 		.word	.L5-.L7
 260 00f4 00000000 		.word	.L5-.L7
 261 00f8 00000000 		.word	.L5-.L7
 262 00fc 00000000 		.word	.L5-.L7
 263 0100 00000000 		.word	.L5-.L7
 264 0104 00000000 		.word	.L8-.L7
 265 0108 00000000 		.word	.L6-.L7
 266              		.text
 267              	.L17:
 268              	.LBB103:
  19:src/Riscv.cpp ****                 ThreadK::running->kill();
 269              		.loc 1 19 13
  19:src/Riscv.cpp ****                 ThreadK::running->kill();
 270              		.loc 1 19 24
  20:src/Riscv.cpp ****             }
 271              		.loc 1 20 17
  20:src/Riscv.cpp ****             }
 272              		.loc 1 20 39 is_stmt 0
 273 010c 97070000 		la	a5,_ZN7ThreadK7runningE
 273      83B70700 
 274 0114 03B50700 		ld	a0,0(a5)
 275              	.LVL9:
 276 0118 97000000 		call	_ZN7ThreadK4killEv@plt
 276      E7800000 
 277              	.LVL10:
 278              	.L16:
  22:src/Riscv.cpp ****                 uint64 volatile sepc = r_sepc() + 4;
 279              		.loc 1 22 13 is_stmt 1
  22:src/Riscv.cpp ****                 uint64 volatile sepc = r_sepc() + 4;
 280              		.loc 1 22 24
 281              	.LBB104:
  23:src/Riscv.cpp ****                 uint64 volatile sstatus = r_sstatus();
 282              		.loc 1 23 17
 283              	.LBB105:
 284              	.LBB106:
  85:src/../h/Riscv.hpp ****     __asm__ volatile ("csrr %[sepc], sepc" :  [sepc] "=r" (sepc));
 285              		.loc 2 85 5
  86:src/../h/Riscv.hpp ****     return sepc;
 286              		.loc 2 86 5
  86:src/../h/Riscv.hpp ****     return sepc;
 287              		.loc 2 86 66 is_stmt 0
 288              	#APP
 289              	# 86 "src/../h/Riscv.hpp" 1
 290              		csrr a5, sepc
 291              	# 0 "" 2
 292              	#NO_APP
 293 0124 2338F4F6 		sd	a5,-144(s0)
  87:src/../h/Riscv.hpp **** }
GAS LISTING /tmp/ccgiFy3I.s 			page 12


 294              		.loc 2 87 5 is_stmt 1
  87:src/../h/Riscv.hpp **** }
 295              		.loc 2 87 12 is_stmt 0
 296 0128 833704F7 		ld	a5,-144(s0)
 297              	.LBE106:
 298              	.LBE105:
  23:src/Riscv.cpp ****                 uint64 volatile sstatus = r_sstatus();
 299              		.loc 1 23 49
 300 012c 93874700 		addi	a5,a5,4
  23:src/Riscv.cpp ****                 uint64 volatile sstatus = r_sstatus();
 301              		.loc 1 23 51
 302 0130 2334F4F0 		sd	a5,-248(s0)
  24:src/Riscv.cpp ****                 ThreadK::timeSliceCounter = 0;
 303              		.loc 1 24 17 is_stmt 1
 304              	.LBB107:
 305              	.LBB108:
 121:src/../h/Riscv.hpp **** 
 122:src/../h/Riscv.hpp **** inline uint64 Riscv::r_sstatus() {
 123:src/../h/Riscv.hpp ****     uint64 volatile sstatus;
 306              		.loc 2 123 5
 124:src/../h/Riscv.hpp ****     __asm__ volatile ("csrr %[sstatus], sstatus" :  [sstatus] "=r" (sstatus));
 307              		.loc 2 124 5
 308              		.loc 2 124 78 is_stmt 0
 309              	#APP
 310              	# 124 "src/../h/Riscv.hpp" 1
 125              	    return sstatus;
 311              		csrr a5, sstatus
 312              	# 0 "" 2
 313              	#NO_APP
 314 0138 2334F4F6 		sd	a5,-152(s0)
 315              		.loc 2 125 5 is_stmt 1
 316              		.loc 2 125 12 is_stmt 0
 317 013c 833784F6 		ld	a5,-152(s0)
 318              	.LBE108:
 319              	.LBE107:
  24:src/Riscv.cpp ****                 ThreadK::timeSliceCounter = 0;
 320              		.loc 1 24 53
 321 0140 2338F4F0 		sd	a5,-240(s0)
  25:src/Riscv.cpp ****                 ThreadK::dispatch();
 322              		.loc 1 25 17 is_stmt 1
  25:src/Riscv.cpp ****                 ThreadK::dispatch();
 323              		.loc 1 25 43 is_stmt 0
 324 0144 97070000 		la	a5,_ZN7ThreadK16timeSliceCounterE
 324      83B70700 
 325 014c 23B00700 		sd	zero,0(a5)
  26:src/Riscv.cpp ****                 w_sstatus(sstatus);
 326              		.loc 1 26 17 is_stmt 1
  26:src/Riscv.cpp ****                 w_sstatus(sstatus);
 327              		.loc 1 26 34 is_stmt 0
 328 0150 97000000 		call	_ZN7ThreadK8dispatchEv@plt
 328      E7800000 
 329              	.LVL11:
  27:src/Riscv.cpp ****                 w_sepc(sepc);
 330              		.loc 1 27 17 is_stmt 1
  27:src/Riscv.cpp ****                 w_sepc(sepc);
 331              		.loc 1 27 26 is_stmt 0
 332 0158 833704F1 		ld	a5,-240(s0)
GAS LISTING /tmp/ccgiFy3I.s 			page 13


 333              	.LVL12:
 334              	.LBB109:
 335              	.LBB110:
 126:src/../h/Riscv.hpp **** }
 127:src/../h/Riscv.hpp **** 
 128:src/../h/Riscv.hpp **** inline void Riscv::w_sstatus(uint64 sstatus) {
 129:src/../h/Riscv.hpp ****     __asm__ volatile("csrw sstatus, %[sstatus]": : [sstatus] "r" (sstatus));
 336              		.loc 2 129 5 is_stmt 1
 337              		.loc 2 129 76 is_stmt 0
 338              	#APP
 339              	# 129 "src/../h/Riscv.hpp" 1
 130              	}
 340              		csrw sstatus, a5
 341              	# 0 "" 2
 342              	.LVL13:
 343              	#NO_APP
 344              	.LBE110:
 345              	.LBE109:
  28:src/Riscv.cpp ****                 break;
 346              		.loc 1 28 17 is_stmt 1
  28:src/Riscv.cpp ****                 break;
 347              		.loc 1 28 23 is_stmt 0
 348 0160 833784F0 		ld	a5,-248(s0)
 349              	.LVL14:
 350              	.LBB111:
 351              	.LBB112:
  91:src/../h/Riscv.hpp **** }
 352              		.loc 2 91 5 is_stmt 1
  91:src/../h/Riscv.hpp **** }
 353              		.loc 2 91 64 is_stmt 0
 354              	#APP
 355              	# 91 "src/../h/Riscv.hpp" 1
  92:src/../h/Riscv.hpp **** 
 356              		csrw sepc, a5
 357              	# 0 "" 2
 358              		.loc 2 92 1
 359              	#NO_APP
 360 0168 6FF09FF3 		j	.L5
 361              	.LVL15:
 362              	.L19:
 363              	.LBE112:
 364              	.LBE111:
 365              	.LBE104:
  31:src/Riscv.cpp ****                 size_t realValue = (size_t) (realargs[0]) * MEM_BLOCK_SIZE; // u bajtovima
 366              		.loc 1 31 13 is_stmt 1
  31:src/Riscv.cpp ****                 size_t realValue = (size_t) (realargs[0]) * MEM_BLOCK_SIZE; // u bajtovima
 367              		.loc 1 31 24
 368              	.LBB113:
  32:src/Riscv.cpp ****                 retval = MemoryAllocator::kmem_alloc(realValue);
 369              		.loc 1 32 17
  32:src/Riscv.cpp ****                 retval = MemoryAllocator::kmem_alloc(realValue);
 370              		.loc 1 32 56 is_stmt 0
 371 016c 03B50500 		ld	a0,0(a1)
 372              	.LVL16:
  33:src/Riscv.cpp ****                 __asm__ volatile("sd %[retval], 10 * 8(s0)" : : [retval] "r"(retval));
 373              		.loc 1 33 17 is_stmt 1
  33:src/Riscv.cpp ****                 __asm__ volatile("sd %[retval], 10 * 8(s0)" : : [retval] "r"(retval));
GAS LISTING /tmp/ccgiFy3I.s 			page 14


 374              		.loc 1 33 53 is_stmt 0
 375 0170 13156500 		slli	a0,a0,6
 376              	.LVL17:
 377 0174 97000000 		call	_ZN15MemoryAllocator10kmem_allocEm@plt
 377      E7800000 
 378              	.LVL18:
  34:src/Riscv.cpp ****                 break;
 379              		.loc 1 34 17 is_stmt 1
  34:src/Riscv.cpp ****                 break;
 380              		.loc 1 34 86 is_stmt 0
 381              	#APP
 382              	# 34 "src/Riscv.cpp" 1
  35:src/Riscv.cpp ****             }
 383              		sd a0, 10 * 8(s0)
 384              	# 0 "" 2
 385              		.loc 1 35 17 is_stmt 1
 386              	#NO_APP
 387 0180 6FF01FF2 		j	.L5
 388              	.LVL19:
 389              	.L18:
 390              	.LBE113:
  37:src/Riscv.cpp ****                 retval = (void *) (uint64) MemoryAllocator::kmem_free((void *) realargs[0]);
 391              		.loc 1 37 13
  37:src/Riscv.cpp ****                 retval = (void *) (uint64) MemoryAllocator::kmem_free((void *) realargs[0]);
 392              		.loc 1 37 24
  38:src/Riscv.cpp ****                 __asm__ volatile("sd %[retval], 10 * 8(s0)" : : [retval] "r"(retval));
 393              		.loc 1 38 17
  38:src/Riscv.cpp ****                 __asm__ volatile("sd %[retval], 10 * 8(s0)" : : [retval] "r"(retval));
 394              		.loc 1 38 70 is_stmt 0
 395 0184 03B50500 		ld	a0,0(a1)
 396              	.LVL20:
 397 0188 97000000 		call	_ZN15MemoryAllocator9kmem_freeEPv@plt
 397      E7800000 
 398              	.LVL21:
  39:src/Riscv.cpp ****                 break;
 399              		.loc 1 39 17 is_stmt 1
  39:src/Riscv.cpp ****                 break;
 400              		.loc 1 39 86 is_stmt 0
 401              	#APP
 402              	# 39 "src/Riscv.cpp" 1
  40:src/Riscv.cpp ****             }
 403              		sd a0, 10 * 8(s0)
 404              	# 0 "" 2
 405              		.loc 1 40 17 is_stmt 1
 406              	#NO_APP
 407 0194 6FF0DFF0 		j	.L5
 408              	.LVL22:
 409              	.L15:
  42:src/Riscv.cpp ****             case 0x11: {
 410              		.loc 1 42 13
  43:src/Riscv.cpp ****                 ThreadK **handle = (ThreadK **) realargs[0];
 411              		.loc 1 43 13
  43:src/Riscv.cpp ****                 ThreadK **handle = (ThreadK **) realargs[0];
 412              		.loc 1 43 24
 413              	.LBB114:
  44:src/Riscv.cpp ****                 ThreadK::Body start_routine = (ThreadK::Body) realargs[1];
 414              		.loc 1 44 17
GAS LISTING /tmp/ccgiFy3I.s 			page 15


  44:src/Riscv.cpp ****                 ThreadK::Body start_routine = (ThreadK::Body) realargs[1];
 415              		.loc 1 44 59 is_stmt 0
 416 0198 03B90500 		ld	s2,0(a1)
 417              	.LVL23:
  45:src/Riscv.cpp ****                 void *arg = (void *) realargs[2];
 418              		.loc 1 45 17 is_stmt 1
  45:src/Riscv.cpp ****                 void *arg = (void *) realargs[2];
 419              		.loc 1 45 73 is_stmt 0
 420 019c 83B98500 		ld	s3,8(a1)
 421              	.LVL24:
  46:src/Riscv.cpp ****                 uint64 *stack = (uint64 *) realargs[3];
 422              		.loc 1 46 17 is_stmt 1
  46:src/Riscv.cpp ****                 uint64 *stack = (uint64 *) realargs[3];
 423              		.loc 1 46 48 is_stmt 0
 424 01a0 03BA0501 		ld	s4,16(a1)
 425              	.LVL25:
  47:src/Riscv.cpp ****                 if(code == 0x11)
 426              		.loc 1 47 17 is_stmt 1
  47:src/Riscv.cpp ****                 if(code == 0x11)
 427              		.loc 1 47 54 is_stmt 0
 428 01a4 83BA8501 		ld	s5,24(a1)
 429              	.LVL26:
  48:src/Riscv.cpp ****                     *handle = ThreadK::createThread(start_routine, arg, stack, false, false);
 430              		.loc 1 48 17 is_stmt 1
 431 01a8 93071001 		li	a5,17
 432 01ac 6380F402 		beq	s1,a5,.L38
 433              	.LVL27:
 434              	.L20:
  50:src/Riscv.cpp ****                     *handle = ThreadK::createThread(start_routine, arg, stack, false, true);
 435              		.loc 1 50 17
 436 01b0 93074001 		li	a5,20
 437 01b4 638EF402 		beq	s1,a5,.L39
 438              	.L21:
  52:src/Riscv.cpp ****                 __asm__ volatile("sd %[retval], 10 * 8(s0)" : : [retval] "r"(retval));
 439              		.loc 1 52 17
  52:src/Riscv.cpp ****                 __asm__ volatile("sd %[retval], 10 * 8(s0)" : : [retval] "r"(retval));
 440              		.loc 1 52 27 is_stmt 0
 441 01b8 83370900 		ld	a5,0(s2)
  52:src/Riscv.cpp ****                 __asm__ volatile("sd %[retval], 10 * 8(s0)" : : [retval] "r"(retval));
 442              		.loc 1 52 35
 443 01bc 638C0704 		beqz	a5,.L32
 444 01c0 93070000 		li	a5,0
 445              	.L22:
 446              	.LVL28:
  53:src/Riscv.cpp ****                 break;
 447              		.loc 1 53 17 is_stmt 1 discriminator 4
  53:src/Riscv.cpp ****                 break;
 448              		.loc 1 53 86 is_stmt 0 discriminator 4
 449              	#APP
 450              	# 53 "src/Riscv.cpp" 1
  54:src/Riscv.cpp ****             }
 451              		sd a5, 10 * 8(s0)
 452              	# 0 "" 2
 453              		.loc 1 54 17 is_stmt 1 discriminator 4
 454              	#NO_APP
 455 01c8 6FF09FED 		j	.L5
 456              	.LVL29:
GAS LISTING /tmp/ccgiFy3I.s 			page 16


 457              	.L38:
  49:src/Riscv.cpp ****                 if(code == 0x14)
 458              		.loc 1 49 21
  49:src/Riscv.cpp ****                 if(code == 0x14)
 459              		.loc 1 49 52 is_stmt 0
 460 01cc 13070000 		li	a4,0
 461 01d0 93060000 		li	a3,0
 462 01d4 13860A00 		mv	a2,s5
 463 01d8 93050A00 		mv	a1,s4
 464              	.LVL30:
 465 01dc 13850900 		mv	a0,s3
 466              	.LVL31:
 467 01e0 97000000 		call	_ZN7ThreadK12createThreadEPFvPvES0_Pmbb@plt
 467      E7800000 
 468              	.LVL32:
  49:src/Riscv.cpp ****                 if(code == 0x14)
 469              		.loc 1 49 29
 470 01e8 2330A900 		sd	a0,0(s2)
 471 01ec 6FF05FFC 		j	.L20
 472              	.L39:
  51:src/Riscv.cpp ****                 retval = (*handle ? (void *) (uint64) 0 : (void *) (uint64) -1);
 473              		.loc 1 51 21 is_stmt 1
  51:src/Riscv.cpp ****                 retval = (*handle ? (void *) (uint64) 0 : (void *) (uint64) -1);
 474              		.loc 1 51 52 is_stmt 0
 475 01f0 13071000 		li	a4,1
 476 01f4 93060000 		li	a3,0
 477 01f8 13860A00 		mv	a2,s5
 478 01fc 93050A00 		mv	a1,s4
 479 0200 13850900 		mv	a0,s3
 480 0204 97000000 		call	_ZN7ThreadK12createThreadEPFvPvES0_Pmbb@plt
 480      E7800000 
 481              	.LVL33:
  51:src/Riscv.cpp ****                 retval = (*handle ? (void *) (uint64) 0 : (void *) (uint64) -1);
 482              		.loc 1 51 29
 483 020c 2330A900 		sd	a0,0(s2)
 484 0210 6FF09FFA 		j	.L21
 485              	.L32:
  52:src/Riscv.cpp ****                 __asm__ volatile("sd %[retval], 10 * 8(s0)" : : [retval] "r"(retval));
 486              		.loc 1 52 35
 487 0214 9307F0FF 		li	a5,-1
 488 0218 6FF0DFFA 		j	.L22
 489              	.LVL34:
 490              	.L14:
 491              	.LBE114:
  56:src/Riscv.cpp ****                 ThreadK *handle = (ThreadK *) realargs[0];
 492              		.loc 1 56 13 is_stmt 1
  56:src/Riscv.cpp ****                 ThreadK *handle = (ThreadK *) realargs[0];
 493              		.loc 1 56 23
 494              	.LBB115:
  57:src/Riscv.cpp ****                 //put it to scheduler
 495              		.loc 1 57 17
  57:src/Riscv.cpp ****                 //put it to scheduler
 496              		.loc 1 57 57 is_stmt 0
 497 021c 03B50500 		ld	a0,0(a1)
 498              	.LVL35:
  59:src/Riscv.cpp ****                     retval = (void *) (uint64) -1;
 499              		.loc 1 59 17 is_stmt 1
GAS LISTING /tmp/ccgiFy3I.s 			page 17


 500 0220 63180500 		bnez	a0,.L23
  60:src/Riscv.cpp ****                     __asm__ volatile("sd %[retval], 10 * 8(s0)" : : [retval] "r"(retval));
 501              		.loc 1 60 21
 502              	.LVL36:
  61:src/Riscv.cpp ****                     break;
 503              		.loc 1 61 21
  61:src/Riscv.cpp ****                     break;
 504              		.loc 1 61 90 is_stmt 0
 505 0224 9307F0FF 		li	a5,-1
 506              	#APP
 507              	# 61 "src/Riscv.cpp" 1
  62:src/Riscv.cpp ****                 }
 508              		sd a5, 10 * 8(s0)
 509              	# 0 "" 2
 510              		.loc 1 62 21 is_stmt 1
 511              	#NO_APP
 512 022c 6FF05FE7 		j	.L5
 513              	.LVL37:
 514              	.L23:
  64:src/Riscv.cpp ****                 retval = 0;
 515              		.loc 1 64 17
  64:src/Riscv.cpp ****                 retval = 0;
 516              		.loc 1 64 31 is_stmt 0
 517 0230 97000000 		call	_ZN9Scheduler3putEP7ThreadK@plt
 517      E7800000 
 518              	.LVL38:
  65:src/Riscv.cpp ****                 __asm__ volatile("sd %[retval], 10 * 8(s0)" : : [retval] "r"(retval));
 519              		.loc 1 65 17 is_stmt 1
  66:src/Riscv.cpp ****                 break;
 520              		.loc 1 66 17
  66:src/Riscv.cpp ****                 break;
 521              		.loc 1 66 86 is_stmt 0
 522 0238 93070000 		li	a5,0
 523              	#APP
 524              	# 66 "src/Riscv.cpp" 1
  67:src/Riscv.cpp ****             }
 525              		sd a5, 10 * 8(s0)
 526              	# 0 "" 2
 527              		.loc 1 67 17 is_stmt 1
 528              	#NO_APP
 529 0240 6FF01FE6 		j	.L5
 530              	.LVL39:
 531              	.L13:
 532              	.LBE115:
  70:src/Riscv.cpp ****                 SemaphoreK** handle = (SemaphoreK**) realargs[0];
 533              		.loc 1 70 13
  70:src/Riscv.cpp ****                 SemaphoreK** handle = (SemaphoreK**) realargs[0];
 534              		.loc 1 70 23
 535              	.LBB116:
  71:src/Riscv.cpp ****                 int init = realargs[1];
 536              		.loc 1 71 17
  71:src/Riscv.cpp ****                 int init = realargs[1];
 537              		.loc 1 71 64 is_stmt 0
 538 0244 83B40500 		ld	s1,0(a1)
 539              	.LVL40:
  72:src/Riscv.cpp ****                 *handle = new SemaphoreK(init);
 540              		.loc 1 72 17 is_stmt 1
GAS LISTING /tmp/ccgiFy3I.s 			page 18


  72:src/Riscv.cpp ****                 *handle = new SemaphoreK(init);
 541              		.loc 1 72 21 is_stmt 0
 542 0248 03A98500 		lw	s2,8(a1)
 543              	.LVL41:
  73:src/Riscv.cpp ****                 retval = (*handle ? (void *) (uint64) 0 : (void *) (uint64) -1);
 544              		.loc 1 73 17 is_stmt 1
  73:src/Riscv.cpp ****                 retval = (*handle ? (void *) (uint64) 0 : (void *) (uint64) -1);
 545              		.loc 1 73 46 is_stmt 0
 546 024c 13050002 		li	a0,32
 547              	.LVL42:
 548 0250 97000000 		call	_ZN10SemaphoreKnwEm@plt
 548      E7800000 
 549              	.LVL43:
 550              	.LBB117:
 551              	.LBB118:
 552              		.file 3 "src/../h/../test/../h/../h/../h/SemaphoreK.hpp"
   1:src/../h/../test/../h/../h/../h/SemaphoreK.hpp **** //
   2:src/../h/../test/../h/../h/../h/SemaphoreK.hpp **** // Created by os on 5/22/22.
   3:src/../h/../test/../h/../h/../h/SemaphoreK.hpp **** //
   4:src/../h/../test/../h/../h/../h/SemaphoreK.hpp **** 
   5:src/../h/../test/../h/../h/../h/SemaphoreK.hpp **** #ifndef PROJECT_BASE_V1_0_SEMAPHORE_HPP
   6:src/../h/../test/../h/../h/../h/SemaphoreK.hpp **** #define PROJECT_BASE_V1_0_SEMAPHORE_HPP
   7:src/../h/../test/../h/../h/../h/SemaphoreK.hpp **** 
   8:src/../h/../test/../h/../h/../h/SemaphoreK.hpp **** #include "../h/ThreadK.hpp"
   9:src/../h/../test/../h/../h/../h/SemaphoreK.hpp **** 
  10:src/../h/../test/../h/../h/../h/SemaphoreK.hpp **** class SemaphoreK {
  11:src/../h/../test/../h/../h/../h/SemaphoreK.hpp **** public:
  12:src/../h/../test/../h/../h/../h/SemaphoreK.hpp ****     SemaphoreK(int val = 1): value(val){}
 553              		.loc 3 12 39
 554 0258 97070000 		la	a5,_ZTV10SemaphoreK
 554      83B70700 
 555 0260 93870701 		addi	a5,a5,16
 556 0264 2330F500 		sd	a5,0(a0)
 557 0268 23242501 		sw	s2,8(a0)
 558 026c 23380500 		sd	zero,16(a0)
 559 0270 233C0500 		sd	zero,24(a0)
 560              	.LVL44:
 561              	.LBE118:
 562              	.LBE117:
  73:src/Riscv.cpp ****                 retval = (*handle ? (void *) (uint64) 0 : (void *) (uint64) -1);
 563              		.loc 1 73 25
 564 0274 23B0A400 		sd	a0,0(s1)
  74:src/Riscv.cpp ****                 __asm__ volatile("sd %[retval], 10 * 8(s0)" : : [retval] "r"(retval));
 565              		.loc 1 74 17 is_stmt 1
  74:src/Riscv.cpp ****                 __asm__ volatile("sd %[retval], 10 * 8(s0)" : : [retval] "r"(retval));
 566              		.loc 1 74 35 is_stmt 0
 567 0278 63080500 		beqz	a0,.L33
 568 027c 93070000 		li	a5,0
 569              	.L24:
 570              	.LVL45:
  75:src/Riscv.cpp ****                 break;
 571              		.loc 1 75 17 is_stmt 1 discriminator 4
  75:src/Riscv.cpp ****                 break;
 572              		.loc 1 75 86 is_stmt 0 discriminator 4
 573              	#APP
 574              	# 75 "src/Riscv.cpp" 1
  76:src/Riscv.cpp ****             }
GAS LISTING /tmp/ccgiFy3I.s 			page 19


 575              		sd a5, 10 * 8(s0)
 576              	# 0 "" 2
 577              		.loc 1 76 17 is_stmt 1 discriminator 4
 578              	#NO_APP
 579 0284 6FF0DFE1 		j	.L5
 580              	.LVL46:
 581              	.L33:
  74:src/Riscv.cpp ****                 __asm__ volatile("sd %[retval], 10 * 8(s0)" : : [retval] "r"(retval));
 582              		.loc 1 74 35 is_stmt 0
 583 0288 9307F0FF 		li	a5,-1
 584 028c 6FF05FFF 		j	.L24
 585              	.LVL47:
 586              	.L12:
 587              	.LBE116:
  78:src/Riscv.cpp ****                 SemaphoreK* handle = (SemaphoreK*) realargs[0];
 588              		.loc 1 78 13 is_stmt 1
  78:src/Riscv.cpp ****                 SemaphoreK* handle = (SemaphoreK*) realargs[0];
 589              		.loc 1 78 23
 590              	.LBB119:
  79:src/Riscv.cpp ****                 if(!handle) {
 591              		.loc 1 79 17
  79:src/Riscv.cpp ****                 if(!handle) {
 592              		.loc 1 79 62 is_stmt 0
 593 0290 03B50500 		ld	a0,0(a1)
 594              	.LVL48:
  80:src/Riscv.cpp ****                     retval = (void *) (uint64) -1;
 595              		.loc 1 80 17 is_stmt 1
 596 0294 63180500 		bnez	a0,.L25
  81:src/Riscv.cpp ****                     __asm__ volatile("sd %[retval], 10 * 8(s0)" : : [retval] "r"(retval));
 597              		.loc 1 81 21
 598              	.LVL49:
  82:src/Riscv.cpp ****                     break;
 599              		.loc 1 82 21
  82:src/Riscv.cpp ****                     break;
 600              		.loc 1 82 90 is_stmt 0
 601 0298 9307F0FF 		li	a5,-1
 602              	#APP
 603              	# 82 "src/Riscv.cpp" 1
  83:src/Riscv.cpp ****                 }
 604              		sd a5, 10 * 8(s0)
 605              	# 0 "" 2
 606              		.loc 1 83 21 is_stmt 1
 607              	#NO_APP
 608 02a0 6FF01FE0 		j	.L5
 609              	.LVL50:
 610              	.L25:
  85:src/Riscv.cpp ****                 retval = 0;
 611              		.loc 1 85 17
  85:src/Riscv.cpp ****                 retval = 0;
 612              		.loc 1 85 37 is_stmt 0
 613 02a4 83370500 		ld	a5,0(a0)
 614 02a8 83B70700 		ld	a5,0(a5)
  85:src/Riscv.cpp ****                 retval = 0;
 615              		.loc 1 85 36
 616 02ac E7800700 		jalr	a5
 617              	.LVL51:
  86:src/Riscv.cpp ****                 __asm__ volatile("sd %[retval], 10 * 8(s0)" : : [retval] "r"(retval));
GAS LISTING /tmp/ccgiFy3I.s 			page 20


 618              		.loc 1 86 17 is_stmt 1
  87:src/Riscv.cpp ****                 break;
 619              		.loc 1 87 17
  87:src/Riscv.cpp ****                 break;
 620              		.loc 1 87 86 is_stmt 0
 621 02b0 93070000 		li	a5,0
 622              	#APP
 623              	# 87 "src/Riscv.cpp" 1
  88:src/Riscv.cpp ****             }
 624              		sd a5, 10 * 8(s0)
 625              	# 0 "" 2
 626              		.loc 1 88 17 is_stmt 1
 627              	#NO_APP
 628 02b8 6FF09FDE 		j	.L5
 629              	.LVL52:
 630              	.L11:
 631              	.LBE119:
  90:src/Riscv.cpp ****                 SemaphoreK* handle = (SemaphoreK*) realargs[0];
 632              		.loc 1 90 13
  90:src/Riscv.cpp ****                 SemaphoreK* handle = (SemaphoreK*) realargs[0];
 633              		.loc 1 90 23
 634              	.LBB120:
  91:src/Riscv.cpp ****                 if(!handle) {
 635              		.loc 1 91 17
  91:src/Riscv.cpp ****                 if(!handle) {
 636              		.loc 1 91 62 is_stmt 0
 637 02bc 03B50500 		ld	a0,0(a1)
 638              	.LVL53:
  92:src/Riscv.cpp ****                     retval = (void *) (uint64) -1;
 639              		.loc 1 92 17 is_stmt 1
 640 02c0 63180500 		bnez	a0,.L26
  93:src/Riscv.cpp ****                     __asm__ volatile("sd %[retval], 10 * 8(s0)" : : [retval] "r"(retval));
 641              		.loc 1 93 21
 642              	.LVL54:
  94:src/Riscv.cpp ****                     break;
 643              		.loc 1 94 21
  94:src/Riscv.cpp ****                     break;
 644              		.loc 1 94 90 is_stmt 0
 645 02c4 9307F0FF 		li	a5,-1
 646              	#APP
 647              	# 94 "src/Riscv.cpp" 1
  95:src/Riscv.cpp ****                 }
 648              		sd a5, 10 * 8(s0)
 649              	# 0 "" 2
 650              		.loc 1 95 21 is_stmt 1
 651              	#NO_APP
 652 02cc 6FF05FDD 		j	.L5
 653              	.LVL55:
 654              	.L26:
  97:src/Riscv.cpp ****                 retval = 0;
 655              		.loc 1 97 17
  97:src/Riscv.cpp ****                 retval = 0;
 656              		.loc 1 97 30 is_stmt 0
 657 02d0 83370500 		ld	a5,0(a0)
 658 02d4 83B70701 		ld	a5,16(a5)
  97:src/Riscv.cpp ****                 retval = 0;
 659              		.loc 1 97 29
GAS LISTING /tmp/ccgiFy3I.s 			page 21


 660 02d8 E7800700 		jalr	a5
 661              	.LVL56:
  98:src/Riscv.cpp ****                 __asm__ volatile("sd %[retval], 10 * 8(s0)" : : [retval] "r"(retval));
 662              		.loc 1 98 17 is_stmt 1
  99:src/Riscv.cpp ****                 break;
 663              		.loc 1 99 17
  99:src/Riscv.cpp ****                 break;
 664              		.loc 1 99 86 is_stmt 0
 665 02dc 93070000 		li	a5,0
 666              	#APP
 667              	# 99 "src/Riscv.cpp" 1
 100:src/Riscv.cpp ****             }
 668              		sd a5, 10 * 8(s0)
 669              	# 0 "" 2
 670              		.loc 1 100 17 is_stmt 1
 671              	#NO_APP
 672 02e4 6FF0DFDB 		j	.L5
 673              	.LVL57:
 674              	.L10:
 675              	.LBE120:
 102:src/Riscv.cpp ****                 SemaphoreK* handle = (SemaphoreK*) realargs[0];
 676              		.loc 1 102 13
 102:src/Riscv.cpp ****                 SemaphoreK* handle = (SemaphoreK*) realargs[0];
 677              		.loc 1 102 23
 678              	.LBB121:
 103:src/Riscv.cpp ****                 if(!handle) {
 679              		.loc 1 103 17
 103:src/Riscv.cpp ****                 if(!handle) {
 680              		.loc 1 103 62 is_stmt 0
 681 02e8 03B50500 		ld	a0,0(a1)
 682              	.LVL58:
 104:src/Riscv.cpp ****                     retval = (void *) (uint64) -1;
 683              		.loc 1 104 17 is_stmt 1
 684 02ec 63180500 		bnez	a0,.L27
 105:src/Riscv.cpp ****                     __asm__ volatile("sd %[retval], 10 * 8(s0)" : : [retval] "r"(retval));
 685              		.loc 1 105 21
 686              	.LVL59:
 106:src/Riscv.cpp ****                     break;
 687              		.loc 1 106 21
 106:src/Riscv.cpp ****                     break;
 688              		.loc 1 106 90 is_stmt 0
 689 02f0 9307F0FF 		li	a5,-1
 690              	#APP
 691              	# 106 "src/Riscv.cpp" 1
 107:src/Riscv.cpp ****                 }
 692              		sd a5, 10 * 8(s0)
 693              	# 0 "" 2
 694              		.loc 1 107 21 is_stmt 1
 695              	#NO_APP
 696 02f8 6FF09FDA 		j	.L5
 697              	.LVL60:
 698              	.L27:
 109:src/Riscv.cpp ****                 retval = 0;
 699              		.loc 1 109 17
 109:src/Riscv.cpp ****                 retval = 0;
 700              		.loc 1 109 32 is_stmt 0
 701 02fc 83370500 		ld	a5,0(a0)
GAS LISTING /tmp/ccgiFy3I.s 			page 22


 702 0300 83B78701 		ld	a5,24(a5)
 109:src/Riscv.cpp ****                 retval = 0;
 703              		.loc 1 109 31
 704 0304 E7800700 		jalr	a5
 705              	.LVL61:
 110:src/Riscv.cpp ****                 __asm__ volatile("sd %[retval], 10 * 8(s0)" : : [retval] "r"(retval));
 706              		.loc 1 110 17 is_stmt 1
 111:src/Riscv.cpp ****                 break;
 707              		.loc 1 111 17
 111:src/Riscv.cpp ****                 break;
 708              		.loc 1 111 86 is_stmt 0
 709 0308 93070000 		li	a5,0
 710              	#APP
 711              	# 111 "src/Riscv.cpp" 1
 112:src/Riscv.cpp ****             }
 712              		sd a5, 10 * 8(s0)
 713              	# 0 "" 2
 714              		.loc 1 112 17 is_stmt 1
 715              	#NO_APP
 716 0310 6FF01FD9 		j	.L5
 717              	.LVL62:
 718              	.L9:
 719              	.LBE121:
 114:src/Riscv.cpp ****                 uint64 time = realargs[0];
 720              		.loc 1 114 13
 114:src/Riscv.cpp ****                 uint64 time = realargs[0];
 721              		.loc 1 114 23
 722              	.LBB122:
 115:src/Riscv.cpp ****                 if(time == 0){
 723              		.loc 1 115 17
 115:src/Riscv.cpp ****                 if(time == 0){
 724              		.loc 1 115 24 is_stmt 0
 725 0314 03B50500 		ld	a0,0(a1)
 726              	.LVL63:
 116:src/Riscv.cpp ****                     retval = 0;
 727              		.loc 1 116 17 is_stmt 1
 728              	.LBB123:
 729 0318 63180500 		bnez	a0,.L28
 117:src/Riscv.cpp ****                     __asm__ volatile("sd %[retval], 10 * 8(s0)" : : [retval] "r"(retval));
 730              		.loc 1 117 21
 118:src/Riscv.cpp ****                     break;
 731              		.loc 1 118 21
 118:src/Riscv.cpp ****                     break;
 732              		.loc 1 118 90 is_stmt 0
 733 031c 93070000 		li	a5,0
 734              	#APP
 735              	# 118 "src/Riscv.cpp" 1
 119:src/Riscv.cpp ****                 }
 736              		sd a5, 10 * 8(s0)
 737              	# 0 "" 2
 738              		.loc 1 119 21 is_stmt 1
 739              	#NO_APP
 740 0324 6FF0DFD7 		j	.L5
 741              	.L28:
 742              	.LBB124:
 122:src/Riscv.cpp ****                     uint64 volatile sepc = r_sepc() + 4;
 743              		.loc 1 122 21
GAS LISTING /tmp/ccgiFy3I.s 			page 23


 122:src/Riscv.cpp ****                     uint64 volatile sepc = r_sepc() + 4;
 744              		.loc 1 122 40 is_stmt 0
 745 0328 97000000 		call	_ZN7ThreadK10putToSleepEm@plt
 745      E7800000 
 746              	.LVL64:
 123:src/Riscv.cpp ****                     uint64 volatile sstatus = r_sstatus();
 747              		.loc 1 123 21 is_stmt 1
 748              	.LBB125:
 749              	.LBB126:
  85:src/../h/Riscv.hpp ****     __asm__ volatile ("csrr %[sepc], sepc" :  [sepc] "=r" (sepc));
 750              		.loc 2 85 5
  86:src/../h/Riscv.hpp ****     return sepc;
 751              		.loc 2 86 5
  86:src/../h/Riscv.hpp ****     return sepc;
 752              		.loc 2 86 66 is_stmt 0
 753              	#APP
 754              	# 86 "src/../h/Riscv.hpp" 1
 755              		csrr a5, sepc
 756              	# 0 "" 2
 757              	#NO_APP
 758 0334 2330F4F8 		sd	a5,-128(s0)
  87:src/../h/Riscv.hpp **** }
 759              		.loc 2 87 5 is_stmt 1
  87:src/../h/Riscv.hpp **** }
 760              		.loc 2 87 12 is_stmt 0
 761 0338 833704F8 		ld	a5,-128(s0)
 762              	.LBE126:
 763              	.LBE125:
 123:src/Riscv.cpp ****                     uint64 volatile sstatus = r_sstatus();
 764              		.loc 1 123 53
 765 033c 93874700 		addi	a5,a5,4
 123:src/Riscv.cpp ****                     uint64 volatile sstatus = r_sstatus();
 766              		.loc 1 123 55
 767 0340 233CF4F0 		sd	a5,-232(s0)
 124:src/Riscv.cpp ****                     ThreadK::timeSliceCounter = 0;
 768              		.loc 1 124 21 is_stmt 1
 769              	.LBB127:
 770              	.LBB128:
 123:src/../h/Riscv.hpp ****     __asm__ volatile ("csrr %[sstatus], sstatus" :  [sstatus] "=r" (sstatus));
 771              		.loc 2 123 5
 124:src/../h/Riscv.hpp ****     return sstatus;
 772              		.loc 2 124 5
 124:src/../h/Riscv.hpp ****     return sstatus;
 773              		.loc 2 124 78 is_stmt 0
 774              	#APP
 775              	# 124 "src/../h/Riscv.hpp" 1
 776              		csrr a5, sstatus
 777              	# 0 "" 2
 778              	#NO_APP
 779 0348 233CF4F6 		sd	a5,-136(s0)
 125:src/../h/Riscv.hpp **** }
 780              		.loc 2 125 5 is_stmt 1
 125:src/../h/Riscv.hpp **** }
 781              		.loc 2 125 12 is_stmt 0
 782 034c 833784F7 		ld	a5,-136(s0)
 783              	.LBE128:
 784              	.LBE127:
GAS LISTING /tmp/ccgiFy3I.s 			page 24


 124:src/Riscv.cpp ****                     ThreadK::timeSliceCounter = 0;
 785              		.loc 1 124 57
 786 0350 2330F4F2 		sd	a5,-224(s0)
 125:src/Riscv.cpp ****                     ThreadK::dispatch();
 787              		.loc 1 125 21 is_stmt 1
 125:src/Riscv.cpp ****                     ThreadK::dispatch();
 788              		.loc 1 125 47 is_stmt 0
 789 0354 97070000 		la	a5,_ZN7ThreadK16timeSliceCounterE
 789      83B70700 
 790 035c 23B00700 		sd	zero,0(a5)
 126:src/Riscv.cpp ****                     w_sstatus(sstatus);
 791              		.loc 1 126 21 is_stmt 1
 126:src/Riscv.cpp ****                     w_sstatus(sstatus);
 792              		.loc 1 126 38 is_stmt 0
 793 0360 97000000 		call	_ZN7ThreadK8dispatchEv@plt
 793      E7800000 
 794              	.LVL65:
 127:src/Riscv.cpp ****                     w_sepc(sepc);
 795              		.loc 1 127 21 is_stmt 1
 127:src/Riscv.cpp ****                     w_sepc(sepc);
 796              		.loc 1 127 30 is_stmt 0
 797 0368 833704F2 		ld	a5,-224(s0)
 798              	.LVL66:
 799              	.LBB129:
 800              	.LBB130:
 129:src/../h/Riscv.hpp **** }
 801              		.loc 2 129 5 is_stmt 1
 129:src/../h/Riscv.hpp **** }
 802              		.loc 2 129 76 is_stmt 0
 803              	#APP
 804              	# 129 "src/../h/Riscv.hpp" 1
 805              		csrw sstatus, a5
 806              	# 0 "" 2
 807              	.LVL67:
 808              	#NO_APP
 809              	.LBE130:
 810              	.LBE129:
 128:src/Riscv.cpp ****                     retval = 0;
 811              		.loc 1 128 21 is_stmt 1
 128:src/Riscv.cpp ****                     retval = 0;
 812              		.loc 1 128 27 is_stmt 0
 813 0370 833784F1 		ld	a5,-232(s0)
 814              	.LVL68:
 815              	.LBB131:
 816              	.LBB132:
  91:src/../h/Riscv.hpp **** }
 817              		.loc 2 91 5 is_stmt 1
  91:src/../h/Riscv.hpp **** }
 818              		.loc 2 91 64 is_stmt 0
 819              	#APP
 820              	# 91 "src/../h/Riscv.hpp" 1
 821              		csrw sepc, a5
 822              	# 0 "" 2
 823              	.LVL69:
 824              	#NO_APP
 825              	.LBE132:
 826              	.LBE131:
GAS LISTING /tmp/ccgiFy3I.s 			page 25


 129:src/Riscv.cpp ****                     __asm__ volatile("sd %[retval], 10 * 8(s0)" : : [retval] "r"(retval));
 827              		.loc 1 129 21 is_stmt 1
 130:src/Riscv.cpp ****                     break;
 828              		.loc 1 130 21
 130:src/Riscv.cpp ****                     break;
 829              		.loc 1 130 90 is_stmt 0
 830 0378 93070000 		li	a5,0
 831              	#APP
 832              	# 130 "src/Riscv.cpp" 1
 131:src/Riscv.cpp ****                 }
 833              		sd a5, 10 * 8(s0)
 834              	# 0 "" 2
 835              		.loc 1 131 21 is_stmt 1
 836              	#NO_APP
 837 0380 6FF01FD2 		j	.L5
 838              	.LVL70:
 839              	.L8:
 840              	.LBE124:
 841              	.LBE123:
 842              	.LBE122:
 134:src/Riscv.cpp ****                 uint64 volatile sepc = r_sepc() + 4;
 843              		.loc 1 134 13
 134:src/Riscv.cpp ****                 uint64 volatile sepc = r_sepc() + 4;
 844              		.loc 1 134 24
 845              	.LBB133:
 135:src/Riscv.cpp ****                 uint64 volatile sstatus = r_sstatus();
 846              		.loc 1 135 17
 847              	.LBB134:
 848              	.LBB135:
  85:src/../h/Riscv.hpp ****     __asm__ volatile ("csrr %[sepc], sepc" :  [sepc] "=r" (sepc));
 849              		.loc 2 85 5
  86:src/../h/Riscv.hpp ****     return sepc;
 850              		.loc 2 86 5
  86:src/../h/Riscv.hpp ****     return sepc;
 851              		.loc 2 86 66 is_stmt 0
 852              	#APP
 853              	# 86 "src/../h/Riscv.hpp" 1
 854              		csrr a5, sepc
 855              	# 0 "" 2
 856              	#NO_APP
 857 0388 2338F4F8 		sd	a5,-112(s0)
  87:src/../h/Riscv.hpp **** }
 858              		.loc 2 87 5 is_stmt 1
  87:src/../h/Riscv.hpp **** }
 859              		.loc 2 87 12 is_stmt 0
 860 038c 833704F9 		ld	a5,-112(s0)
 861              	.LBE135:
 862              	.LBE134:
 135:src/Riscv.cpp ****                 uint64 volatile sstatus = r_sstatus();
 863              		.loc 1 135 49
 864 0390 93874700 		addi	a5,a5,4
 135:src/Riscv.cpp ****                 uint64 volatile sstatus = r_sstatus();
 865              		.loc 1 135 51
 866 0394 2334F4F2 		sd	a5,-216(s0)
 136:src/Riscv.cpp ****                 char c = ConsoleK::kgetc();
 867              		.loc 1 136 17 is_stmt 1
 868              	.LBB136:
GAS LISTING /tmp/ccgiFy3I.s 			page 26


 869              	.LBB137:
 123:src/../h/Riscv.hpp ****     __asm__ volatile ("csrr %[sstatus], sstatus" :  [sstatus] "=r" (sstatus));
 870              		.loc 2 123 5
 124:src/../h/Riscv.hpp ****     return sstatus;
 871              		.loc 2 124 5
 124:src/../h/Riscv.hpp ****     return sstatus;
 872              		.loc 2 124 78 is_stmt 0
 873              	#APP
 874              	# 124 "src/../h/Riscv.hpp" 1
 875              		csrr a5, sstatus
 876              	# 0 "" 2
 877              	#NO_APP
 878 039c 2334F4F8 		sd	a5,-120(s0)
 125:src/../h/Riscv.hpp **** }
 879              		.loc 2 125 5 is_stmt 1
 125:src/../h/Riscv.hpp **** }
 880              		.loc 2 125 12 is_stmt 0
 881 03a0 833784F8 		ld	a5,-120(s0)
 882              	.LBE137:
 883              	.LBE136:
 136:src/Riscv.cpp ****                 char c = ConsoleK::kgetc();
 884              		.loc 1 136 53
 885 03a4 2338F4F2 		sd	a5,-208(s0)
 137:src/Riscv.cpp ****                 w_sstatus(sstatus);
 886              		.loc 1 137 17 is_stmt 1
 137:src/Riscv.cpp ****                 w_sstatus(sstatus);
 887              		.loc 1 137 41 is_stmt 0
 888 03a8 97000000 		call	_ZN8ConsoleK5kgetcEv@plt
 888      E7800000 
 889              	.LVL71:
 138:src/Riscv.cpp ****                 w_sepc(sepc);
 890              		.loc 1 138 17 is_stmt 1
 138:src/Riscv.cpp ****                 w_sepc(sepc);
 891              		.loc 1 138 26 is_stmt 0
 892 03b0 833704F3 		ld	a5,-208(s0)
 893              	.LVL72:
 894              	.LBB138:
 895              	.LBB139:
 129:src/../h/Riscv.hpp **** }
 896              		.loc 2 129 5 is_stmt 1
 129:src/../h/Riscv.hpp **** }
 897              		.loc 2 129 76 is_stmt 0
 898              	#APP
 899              	# 129 "src/../h/Riscv.hpp" 1
 900              		csrw sstatus, a5
 901              	# 0 "" 2
 902              	.LVL73:
 903              	#NO_APP
 904              	.LBE139:
 905              	.LBE138:
 139:src/Riscv.cpp ****                 retval = (void*)((uint64)c);
 906              		.loc 1 139 17 is_stmt 1
 139:src/Riscv.cpp ****                 retval = (void*)((uint64)c);
 907              		.loc 1 139 23 is_stmt 0
 908 03b8 833784F2 		ld	a5,-216(s0)
 909              	.LVL74:
 910              	.LBB140:
GAS LISTING /tmp/ccgiFy3I.s 			page 27


 911              	.LBB141:
  91:src/../h/Riscv.hpp **** }
 912              		.loc 2 91 5 is_stmt 1
  91:src/../h/Riscv.hpp **** }
 913              		.loc 2 91 64 is_stmt 0
 914              	#APP
 915              	# 91 "src/../h/Riscv.hpp" 1
 916              		csrw sepc, a5
 917              	# 0 "" 2
 918              	.LVL75:
 919              	#NO_APP
 920              	.LBE141:
 921              	.LBE140:
 140:src/Riscv.cpp ****                 __asm__ volatile("sd %[retval], 10 * 8(s0)" : : [retval] "r"(retval));
 922              		.loc 1 140 17 is_stmt 1
 141:src/Riscv.cpp ****                 break;
 923              		.loc 1 141 17
 141:src/Riscv.cpp ****                 break;
 924              		.loc 1 141 86 is_stmt 0
 925              	#APP
 926              	# 141 "src/Riscv.cpp" 1
 142:src/Riscv.cpp ****             }
 927              		sd a0, 10 * 8(s0)
 928              	# 0 "" 2
 929              		.loc 1 142 17 is_stmt 1
 930              	#NO_APP
 931 03c4 6FF0DFCD 		j	.L5
 932              	.LVL76:
 933              	.L6:
 934              	.LBE133:
 144:src/Riscv.cpp ****                 char c = (char)realargs[0];
 935              		.loc 1 144 13
 144:src/Riscv.cpp ****                 char c = (char)realargs[0];
 936              		.loc 1 144 23
 937              	.LBB142:
 145:src/Riscv.cpp ****                 uint64 volatile sepc = r_sepc() + 4;
 938              		.loc 1 145 17
 145:src/Riscv.cpp ****                 uint64 volatile sepc = r_sepc() + 4;
 939              		.loc 1 145 22 is_stmt 0
 940 03c8 03C50500 		lbu	a0,0(a1)
 941              	.LVL77:
 146:src/Riscv.cpp ****                 uint64 volatile sstatus = r_sstatus();
 942              		.loc 1 146 17 is_stmt 1
 943              	.LBB143:
 944              	.LBB144:
  85:src/../h/Riscv.hpp ****     __asm__ volatile ("csrr %[sepc], sepc" :  [sepc] "=r" (sepc));
 945              		.loc 2 85 5
  86:src/../h/Riscv.hpp ****     return sepc;
 946              		.loc 2 86 5
  86:src/../h/Riscv.hpp ****     return sepc;
 947              		.loc 2 86 66 is_stmt 0
 948              	#APP
 949              	# 86 "src/../h/Riscv.hpp" 1
 950              		csrr a5, sepc
 951              	# 0 "" 2
 952              	#NO_APP
 953 03d0 2330F4FA 		sd	a5,-96(s0)
GAS LISTING /tmp/ccgiFy3I.s 			page 28


  87:src/../h/Riscv.hpp **** }
 954              		.loc 2 87 5 is_stmt 1
  87:src/../h/Riscv.hpp **** }
 955              		.loc 2 87 12 is_stmt 0
 956 03d4 833704FA 		ld	a5,-96(s0)
 957              	.LBE144:
 958              	.LBE143:
 146:src/Riscv.cpp ****                 uint64 volatile sstatus = r_sstatus();
 959              		.loc 1 146 49
 960 03d8 93874700 		addi	a5,a5,4
 146:src/Riscv.cpp ****                 uint64 volatile sstatus = r_sstatus();
 961              		.loc 1 146 51
 962 03dc 233CF4F2 		sd	a5,-200(s0)
 147:src/Riscv.cpp ****                 ConsoleK::kputc(c);
 963              		.loc 1 147 17 is_stmt 1
 964              	.LBB145:
 965              	.LBB146:
 123:src/../h/Riscv.hpp ****     __asm__ volatile ("csrr %[sstatus], sstatus" :  [sstatus] "=r" (sstatus));
 966              		.loc 2 123 5
 124:src/../h/Riscv.hpp ****     return sstatus;
 967              		.loc 2 124 5
 124:src/../h/Riscv.hpp ****     return sstatus;
 968              		.loc 2 124 78 is_stmt 0
 969              	#APP
 970              	# 124 "src/../h/Riscv.hpp" 1
 971              		csrr a5, sstatus
 972              	# 0 "" 2
 973              	#NO_APP
 974 03e4 233CF4F8 		sd	a5,-104(s0)
 125:src/../h/Riscv.hpp **** }
 975              		.loc 2 125 5 is_stmt 1
 125:src/../h/Riscv.hpp **** }
 976              		.loc 2 125 12 is_stmt 0
 977 03e8 833784F9 		ld	a5,-104(s0)
 978              	.LBE146:
 979              	.LBE145:
 147:src/Riscv.cpp ****                 ConsoleK::kputc(c);
 980              		.loc 1 147 53
 981 03ec 2330F4F4 		sd	a5,-192(s0)
 148:src/Riscv.cpp ****                 w_sstatus(sstatus);
 982              		.loc 1 148 17 is_stmt 1
 148:src/Riscv.cpp ****                 w_sstatus(sstatus);
 983              		.loc 1 148 32 is_stmt 0
 984 03f0 97000000 		call	_ZN8ConsoleK5kputcEc@plt
 984      E7800000 
 985              	.LVL78:
 149:src/Riscv.cpp ****                 w_sepc(sepc);
 986              		.loc 1 149 17 is_stmt 1
 149:src/Riscv.cpp ****                 w_sepc(sepc);
 987              		.loc 1 149 26 is_stmt 0
 988 03f8 833704F4 		ld	a5,-192(s0)
 989              	.LVL79:
 990              	.LBB147:
 991              	.LBB148:
 129:src/../h/Riscv.hpp **** }
 992              		.loc 2 129 5 is_stmt 1
 129:src/../h/Riscv.hpp **** }
GAS LISTING /tmp/ccgiFy3I.s 			page 29


 993              		.loc 2 129 76 is_stmt 0
 994              	#APP
 995              	# 129 "src/../h/Riscv.hpp" 1
 996              		csrw sstatus, a5
 997              	# 0 "" 2
 998              	.LVL80:
 999              	#NO_APP
 1000              	.LBE148:
 1001              	.LBE147:
 150:src/Riscv.cpp ****                 retval = 0;
 1002              		.loc 1 150 17 is_stmt 1
 150:src/Riscv.cpp ****                 retval = 0;
 1003              		.loc 1 150 23 is_stmt 0
 1004 0400 833784F3 		ld	a5,-200(s0)
 1005              	.LVL81:
 1006              	.LBB149:
 1007              	.LBB150:
  91:src/../h/Riscv.hpp **** }
 1008              		.loc 2 91 5 is_stmt 1
  91:src/../h/Riscv.hpp **** }
 1009              		.loc 2 91 64 is_stmt 0
 1010              	#APP
 1011              	# 91 "src/../h/Riscv.hpp" 1
 1012              		csrw sepc, a5
 1013              	# 0 "" 2
 1014              	.LVL82:
 1015              	#NO_APP
 1016              	.LBE150:
 1017              	.LBE149:
 151:src/Riscv.cpp ****                 __asm__ volatile("sd %[retval], 10 * 8(s0)" : : [retval] "r"(retval));
 1018              		.loc 1 151 17 is_stmt 1
 152:src/Riscv.cpp ****                 break;
 1019              		.loc 1 152 17
 152:src/Riscv.cpp ****                 break;
 1020              		.loc 1 152 86 is_stmt 0
 1021 0408 93070000 		li	a5,0
 1022              	#APP
 1023              	# 152 "src/Riscv.cpp" 1
 153:src/Riscv.cpp ****             }
 1024              		sd a5, 10 * 8(s0)
 1025              	# 0 "" 2
 1026              		.loc 1 153 17 is_stmt 1
 1027              	#NO_APP
 1028 0410 6FF01FC9 		j	.L5
 1029              	.LVL83:
 1030              	.L36:
 1031              	.LBE142:
 1032              	.LBE103:
 1033              	.LBE98:
 1034              	.LBB151:
 1035              	.LBB84:
 158:src/Riscv.cpp ****         //budjenje niti
 1036              		.loc 1 158 9
 158:src/Riscv.cpp ****         //budjenje niti
 1037              		.loc 1 158 34 is_stmt 0
 1038 0414 17070000 		la	a4,_ZN7ThreadK16timeSliceCounterE
 1038      03370700 
GAS LISTING /tmp/ccgiFy3I.s 			page 30


 1039 041c 83370700 		ld	a5,0(a4)
 1040 0420 93871700 		addi	a5,a5,1
 1041 0424 2330F700 		sd	a5,0(a4)
 160:src/Riscv.cpp ****             ThreadK::sleepHead->sleepTime--;
 1042              		.loc 1 160 9 is_stmt 1
 160:src/Riscv.cpp ****             ThreadK::sleepHead->sleepTime--;
 1043              		.loc 1 160 30 is_stmt 0
 1044 0428 97070000 		la	a5,_ZN7ThreadK9sleepHeadE
 1044      83B70700 
 1045 0430 83B70700 		ld	a5,0(a5)
 160:src/Riscv.cpp ****             ThreadK::sleepHead->sleepTime--;
 1046              		.loc 1 160 9
 1047 0434 638C0700 		beqz	a5,.L29
 161:src/Riscv.cpp ****             ThreadK::awake();
 1048              		.loc 1 161 13 is_stmt 1
 161:src/Riscv.cpp ****             ThreadK::awake();
 1049              		.loc 1 161 33 is_stmt 0
 1050 0438 03B78706 		ld	a4,104(a5)
 161:src/Riscv.cpp ****             ThreadK::awake();
 1051              		.loc 1 161 42
 1052 043c 1307F7FF 		addi	a4,a4,-1
 1053 0440 23B4E706 		sd	a4,104(a5)
 162:src/Riscv.cpp ****         }
 1054              		.loc 1 162 13 is_stmt 1
 162:src/Riscv.cpp ****         }
 1055              		.loc 1 162 27 is_stmt 0
 1056 0444 97000000 		call	_ZN7ThreadK5awakeEv@plt
 1056      E7800000 
 1057              	.LVL84:
 1058              	.L29:
 164:src/Riscv.cpp ****             uint64 volatile sepc = r_sepc();
 1059              		.loc 1 164 9 is_stmt 1
 1060              	.LBB85:
 164:src/Riscv.cpp ****             uint64 volatile sepc = r_sepc();
 1061              		.loc 1 164 60 is_stmt 0
 1062 044c 97070000 		la	a5,_ZN7ThreadK7runningE
 1062      83B70700 
 1063 0454 83B70700 		ld	a5,0(a5)
 1064 0458 03B70703 		ld	a4,48(a5)
 164:src/Riscv.cpp ****             uint64 volatile sepc = r_sepc();
 1065              		.loc 1 164 39
 1066 045c 97070000 		la	a5,_ZN7ThreadK16timeSliceCounterE
 1066      83B70700 
 1067 0464 83B70700 		ld	a5,0(a5)
 164:src/Riscv.cpp ****             uint64 volatile sepc = r_sepc();
 1068              		.loc 1 164 9
 1069 0468 63F8E700 		bleu	a4,a5,.L40
 1070              	.L30:
 1071              	.LBE85:
 172:src/Riscv.cpp ****     } else if (scause == 0x8000000000000009UL) {
 1072              		.loc 1 172 9 is_stmt 1
 1073              	.LVL85:
 1074              	.LBB95:
 1075              	.LBB96:
 119:src/../h/Riscv.hpp **** }
 1076              		.loc 2 119 5
 119:src/../h/Riscv.hpp **** }
GAS LISTING /tmp/ccgiFy3I.s 			page 31


 1077              		.loc 2 119 64 is_stmt 0
 1078 046c 93070020 		li	a5,512
 1079              	#APP
 1080              	# 119 "src/../h/Riscv.hpp" 1
 120:src/../h/Riscv.hpp **** 
 1081              		csrc sip, a5
 1082              	# 0 "" 2
 1083              		.loc 2 120 1
 1084              	#NO_APP
 1085 0474 6FF0DFC2 		j	.L5
 1086              	.LVL86:
 1087              	.L40:
 1088              	.LBE96:
 1089              	.LBE95:
 1090              	.LBB97:
 1091              	.LBB86:
 165:src/Riscv.cpp ****             uint64 volatile sstatus = r_sstatus();
 1092              		.loc 1 165 13 is_stmt 1
 1093              	.LBB87:
 1094              	.LBB88:
  85:src/../h/Riscv.hpp ****     __asm__ volatile ("csrr %[sepc], sepc" :  [sepc] "=r" (sepc));
 1095              		.loc 2 85 5
  86:src/../h/Riscv.hpp ****     return sepc;
 1096              		.loc 2 86 5
  86:src/../h/Riscv.hpp ****     return sepc;
 1097              		.loc 2 86 66 is_stmt 0
 1098              	#APP
 1099              	# 86 "src/../h/Riscv.hpp" 1
 1100              		csrr a5, sepc
 1101              	# 0 "" 2
 1102              	#NO_APP
 1103 047c 2338F4FA 		sd	a5,-80(s0)
  87:src/../h/Riscv.hpp **** }
 1104              		.loc 2 87 5 is_stmt 1
  87:src/../h/Riscv.hpp **** }
 1105              		.loc 2 87 12 is_stmt 0
 1106 0480 833704FB 		ld	a5,-80(s0)
 1107              	.LBE88:
 1108              	.LBE87:
 165:src/Riscv.cpp ****             uint64 volatile sstatus = r_sstatus();
 1109              		.loc 1 165 43
 1110 0484 2334F4F4 		sd	a5,-184(s0)
 166:src/Riscv.cpp ****             ThreadK::timeSliceCounter = 0;
 1111              		.loc 1 166 13 is_stmt 1
 1112              	.LBB89:
 1113              	.LBB90:
 123:src/../h/Riscv.hpp ****     __asm__ volatile ("csrr %[sstatus], sstatus" :  [sstatus] "=r" (sstatus));
 1114              		.loc 2 123 5
 124:src/../h/Riscv.hpp ****     return sstatus;
 1115              		.loc 2 124 5
 124:src/../h/Riscv.hpp ****     return sstatus;
 1116              		.loc 2 124 78 is_stmt 0
 1117              	#APP
 1118              	# 124 "src/../h/Riscv.hpp" 1
 1119              		csrr a5, sstatus
 1120              	# 0 "" 2
 1121              	#NO_APP
GAS LISTING /tmp/ccgiFy3I.s 			page 32


 1122 048c 2334F4FA 		sd	a5,-88(s0)
 125:src/../h/Riscv.hpp **** }
 1123              		.loc 2 125 5 is_stmt 1
 125:src/../h/Riscv.hpp **** }
 1124              		.loc 2 125 12 is_stmt 0
 1125 0490 833784FA 		ld	a5,-88(s0)
 1126              	.LBE90:
 1127              	.LBE89:
 166:src/Riscv.cpp ****             ThreadK::timeSliceCounter = 0;
 1128              		.loc 1 166 49
 1129 0494 2338F4F4 		sd	a5,-176(s0)
 167:src/Riscv.cpp ****             ThreadK::dispatch();
 1130              		.loc 1 167 13 is_stmt 1
 167:src/Riscv.cpp ****             ThreadK::dispatch();
 1131              		.loc 1 167 39 is_stmt 0
 1132 0498 97070000 		la	a5,_ZN7ThreadK16timeSliceCounterE
 1132      83B70700 
 1133 04a0 23B00700 		sd	zero,0(a5)
 168:src/Riscv.cpp ****             w_sstatus(sstatus);
 1134              		.loc 1 168 13 is_stmt 1
 168:src/Riscv.cpp ****             w_sstatus(sstatus);
 1135              		.loc 1 168 30 is_stmt 0
 1136 04a4 97000000 		call	_ZN7ThreadK8dispatchEv@plt
 1136      E7800000 
 1137              	.LVL87:
 169:src/Riscv.cpp ****             w_sepc(sepc);
 1138              		.loc 1 169 13 is_stmt 1
 169:src/Riscv.cpp ****             w_sepc(sepc);
 1139              		.loc 1 169 22 is_stmt 0
 1140 04ac 833704F5 		ld	a5,-176(s0)
 1141              	.LVL88:
 1142              	.LBB91:
 1143              	.LBB92:
 129:src/../h/Riscv.hpp **** }
 1144              		.loc 2 129 5 is_stmt 1
 129:src/../h/Riscv.hpp **** }
 1145              		.loc 2 129 76 is_stmt 0
 1146              	#APP
 1147              	# 129 "src/../h/Riscv.hpp" 1
 1148              		csrw sstatus, a5
 1149              	# 0 "" 2
 1150              	.LVL89:
 1151              	#NO_APP
 1152              	.LBE92:
 1153              	.LBE91:
 170:src/Riscv.cpp ****         }
 1154              		.loc 1 170 13 is_stmt 1
 170:src/Riscv.cpp ****         }
 1155              		.loc 1 170 19 is_stmt 0
 1156 04b4 833784F4 		ld	a5,-184(s0)
 1157              	.LVL90:
 1158              	.LBB93:
 1159              	.LBB94:
  91:src/../h/Riscv.hpp **** }
 1160              		.loc 2 91 5 is_stmt 1
  91:src/../h/Riscv.hpp **** }
 1161              		.loc 2 91 64 is_stmt 0
GAS LISTING /tmp/ccgiFy3I.s 			page 33


 1162              	#APP
 1163              	# 91 "src/../h/Riscv.hpp" 1
  92:src/../h/Riscv.hpp **** 
 1164              		csrw sepc, a5
 1165              	# 0 "" 2
 1166              		.loc 2 92 1
 1167              	#NO_APP
 1168 04bc 6FF01FFB 		j	.L30
 1169              	.LVL91:
 1170              	.L37:
 1171              	.LBE94:
 1172              	.LBE93:
 1173              	.LBE86:
 1174              	.LBE97:
 1175              	.LBE84:
 174:src/Riscv.cpp ****     } else {
 1176              		.loc 1 174 9 is_stmt 1
 174:src/Riscv.cpp ****     } else {
 1177              		.loc 1 174 36 is_stmt 0
 1178 04c0 97000000 		call	_ZN8ConsoleK17k_console_handlerEv@plt
 1178      E7800000 
 1179              	.LVL92:
 1180 04c8 6FF09FBD 		j	.L5
 1181              	.LBE151:
 1182              	.LBE155:
 1183              		.cfi_endproc
 1184              	.LFE28:
 1186              		.align	2
 1187              		.globl	_ZN5Riscv10popSppSpieEv
 1189              	_ZN5Riscv10popSppSpieEv:
 1190              	.LFB29:
 182:src/Riscv.cpp **** 
 183:src/Riscv.cpp **** void Riscv::popSppSpie() {
 1191              		.loc 1 183 26 is_stmt 1
 1192              		.cfi_startproc
 1193 04cc 130101FE 		addi	sp,sp,-32
 1194              		.cfi_def_cfa_offset 32
 1195 04d0 233C8100 		sd	s0,24(sp)
 1196              		.cfi_offset 8, -8
 1197 04d4 13040102 		addi	s0,sp,32
 1198              		.cfi_def_cfa 8, 0
 184:src/Riscv.cpp ****     uint64 volatile sstatus;
 1199              		.loc 1 184 5
 185:src/Riscv.cpp ****     sstatus = r_sstatus();
 1200              		.loc 1 185 5
 1201              	.LBB156:
 1202              	.LBB157:
 123:src/../h/Riscv.hpp ****     __asm__ volatile ("csrr %[sstatus], sstatus" :  [sstatus] "=r" (sstatus));
 1203              		.loc 2 123 5
 124:src/../h/Riscv.hpp ****     return sstatus;
 1204              		.loc 2 124 5
 124:src/../h/Riscv.hpp ****     return sstatus;
 1205              		.loc 2 124 78 is_stmt 0
 1206              	#APP
 1207              	# 124 "src/../h/Riscv.hpp" 1
 1208              		csrr a5, sstatus
 1209              	# 0 "" 2
GAS LISTING /tmp/ccgiFy3I.s 			page 34


 1210              	#NO_APP
 1211 04dc 2330F4FE 		sd	a5,-32(s0)
 125:src/../h/Riscv.hpp **** }
 1212              		.loc 2 125 5 is_stmt 1
 125:src/../h/Riscv.hpp **** }
 1213              		.loc 2 125 12 is_stmt 0
 1214 04e0 833704FE 		ld	a5,-32(s0)
 1215              	.LBE157:
 1216              	.LBE156:
 1217              		.loc 1 185 13
 1218 04e4 2334F4FE 		sd	a5,-24(s0)
 186:src/Riscv.cpp ****     if(ThreadK::running->systemThread){
 1219              		.loc 1 186 5 is_stmt 1
 1220              		.loc 1 186 26 is_stmt 0
 1221 04e8 97070000 		la	a5,_ZN7ThreadK7runningE
 1221      83B70700 
 1222 04f0 83B70700 		ld	a5,0(a5)
 1223 04f4 83C71707 		lbu	a5,113(a5)
 1224              		.loc 1 186 5
 1225 04f8 638C0702 		beqz	a5,.L42
 187:src/Riscv.cpp ****         sstatus &= ~SSTATUS_SPIE;
 1226              		.loc 1 187 9 is_stmt 1
 1227              		.loc 1 187 17 is_stmt 0
 1228 04fc 833784FE 		ld	a5,-24(s0)
 1229 0500 93F7F7FD 		andi	a5,a5,-33
 1230 0504 2334F4FE 		sd	a5,-24(s0)
 188:src/Riscv.cpp ****         sstatus |= SSTATUS_SPP;
 1231              		.loc 1 188 9 is_stmt 1
 1232              		.loc 1 188 17 is_stmt 0
 1233 0508 833784FE 		ld	a5,-24(s0)
 1234 050c 93E70710 		ori	a5,a5,256
 1235 0510 2334F4FE 		sd	a5,-24(s0)
 1236              	.L43:
 189:src/Riscv.cpp ****     }
 190:src/Riscv.cpp ****     else{
 191:src/Riscv.cpp ****         sstatus |= SSTATUS_SPIE;
 192:src/Riscv.cpp ****         sstatus &= ~SSTATUS_SPP;
 193:src/Riscv.cpp ****     }
 194:src/Riscv.cpp ****     w_sstatus(sstatus);
 1237              		.loc 1 194 5 is_stmt 1
 1238              		.loc 1 194 14 is_stmt 0
 1239 0514 833784FE 		ld	a5,-24(s0)
 1240              	.LVL93:
 1241              	.LBB158:
 1242              	.LBB159:
 129:src/../h/Riscv.hpp **** }
 1243              		.loc 2 129 5 is_stmt 1
 129:src/../h/Riscv.hpp **** }
 1244              		.loc 2 129 76 is_stmt 0
 1245              	#APP
 1246              	# 129 "src/../h/Riscv.hpp" 1
 1247              		csrw sstatus, a5
 1248              	# 0 "" 2
 1249              	.LVL94:
 1250              	#NO_APP
 1251              	.LBE159:
 1252              	.LBE158:
GAS LISTING /tmp/ccgiFy3I.s 			page 35


 195:src/Riscv.cpp ****     __asm__ volatile("csrw sepc, ra");
 1253              		.loc 1 195 5 is_stmt 1
 1254              		.loc 1 195 38 is_stmt 0
 1255              	#APP
 1256              	# 195 "src/Riscv.cpp" 1
 196              	    __asm__ volatile("sret");
 1257              		csrw sepc, ra
 1258              	# 0 "" 2
 1259              		.loc 1 196 5 is_stmt 1
 1260              		.loc 1 196 29 is_stmt 0
 1261              	# 196 "src/Riscv.cpp" 1
 197              	}
 1262              		sret
 1263              	# 0 "" 2
 1264              		.loc 1 197 1
 1265              	#NO_APP
 1266 0524 03348101 		ld	s0,24(sp)
 1267              		.cfi_remember_state
 1268              		.cfi_restore 8
 1269              		.cfi_def_cfa 2, 32
 1270 0528 13010102 		addi	sp,sp,32
 1271              		.cfi_def_cfa_offset 0
 1272 052c 67800000 		jr	ra
 1273              	.L42:
 1274              		.cfi_restore_state
 191:src/Riscv.cpp ****         sstatus &= ~SSTATUS_SPP;
 1275              		.loc 1 191 9 is_stmt 1
 191:src/Riscv.cpp ****         sstatus &= ~SSTATUS_SPP;
 1276              		.loc 1 191 17 is_stmt 0
 1277 0530 833784FE 		ld	a5,-24(s0)
 1278 0534 93E70702 		ori	a5,a5,32
 1279 0538 2334F4FE 		sd	a5,-24(s0)
 192:src/Riscv.cpp ****     }
 1280              		.loc 1 192 9 is_stmt 1
 192:src/Riscv.cpp ****     }
 1281              		.loc 1 192 17 is_stmt 0
 1282 053c 833784FE 		ld	a5,-24(s0)
 1283 0540 93F7F7EF 		andi	a5,a5,-257
 1284 0544 2334F4FE 		sd	a5,-24(s0)
 1285 0548 6FF0DFFC 		j	.L43
 1286              		.cfi_endproc
 1287              	.LFE29:
 1289              	.Letext0:
 1290              		.file 4 "src/../h/../lib/hw.h"
 1291              		.file 5 "src/../h/../test/../h/../h/../h/../h/MemoryAllocator.hpp"
 1292              		.file 6 "src/../h/../test/../h/../h/../h/Scheduler.hpp"
 1293              		.file 7 "src/../h/../test/../h/../h/ThreadK.hpp"
 1294              		.file 8 "src/../h/../test/../h/syscall_c.h"
 1295              		.file 9 "src/../h/../h/BoundedBuffer.hpp"
 1296              		.file 10 "src/../h/ConsoleK.hpp"
 1297              		.file 11 "src/../h/../test/printing.hpp"
GAS LISTING /tmp/ccgiFy3I.s 			page 36

