GAS LISTING /tmp/cct9MrVL.s 			page 1


   1              		.file	"Scheduler.cpp"
   2              		.option pic
   3              		.option norelax
   4              		.text
   5              	.Ltext0:
   6              		.align	2
   7              		.globl	_ZN9Scheduler4idleEPv
   9              	_ZN9Scheduler4idleEPv:
  10              	.LFB11:
  11              		.file 1 "src/Scheduler.cpp"
   1:src/Scheduler.cpp **** //
   2:src/Scheduler.cpp **** // Created by os on 5/17/22.
   3:src/Scheduler.cpp **** //
   4:src/Scheduler.cpp **** 
   5:src/Scheduler.cpp **** #include "../h/Scheduler.hpp"
   6:src/Scheduler.cpp **** #include "../h/ThreadK.hpp"
   7:src/Scheduler.cpp **** 
   8:src/Scheduler.cpp **** Scheduler *Scheduler::instance = nullptr;
   9:src/Scheduler.cpp **** 
  10:src/Scheduler.cpp **** ThreadK *Scheduler::get() {
  11:src/Scheduler.cpp ****     ThreadK *tmp = instance->listHead;
  12:src/Scheduler.cpp ****     if(tmp->body == idle){
  13:src/Scheduler.cpp ****         tmp = tmp->nextThread;
  14:src/Scheduler.cpp ****         bool flag = false;
  15:src/Scheduler.cpp ****         while(tmp){
  16:src/Scheduler.cpp ****             if(!tmp->systemThread){
  17:src/Scheduler.cpp ****                 flag = true;
  18:src/Scheduler.cpp ****                 break;
  19:src/Scheduler.cpp ****             }
  20:src/Scheduler.cpp ****             else{
  21:src/Scheduler.cpp ****                 tmp = tmp->nextThread;
  22:src/Scheduler.cpp ****             }
  23:src/Scheduler.cpp ****         }
  24:src/Scheduler.cpp ****         //ima korisnickih niti pa ne treba da vratim idle nego da je samo stavim na kraj
  25:src/Scheduler.cpp ****         if(flag){
  26:src/Scheduler.cpp ****             ThreadK* tmp1 = instance->listHead;
  27:src/Scheduler.cpp ****             instance->listHead = instance->listHead->nextThread;
  28:src/Scheduler.cpp ****             tmp1->nextThread = nullptr;
  29:src/Scheduler.cpp ****             if(!instance->listHead) instance->listHead = instance->listTail = tmp1;
  30:src/Scheduler.cpp ****             else instance->listTail = instance->listTail->nextThread = tmp1;
  31:src/Scheduler.cpp ****         }
  32:src/Scheduler.cpp ****         tmp = instance->listHead;
  33:src/Scheduler.cpp ****     }
  34:src/Scheduler.cpp ****     instance->listHead = instance->listHead->nextThread;
  35:src/Scheduler.cpp ****     if (!instance->listHead) instance->listTail = nullptr;
  36:src/Scheduler.cpp ****     tmp->nextThread = nullptr;
  37:src/Scheduler.cpp ****     return tmp;
  38:src/Scheduler.cpp **** }
  39:src/Scheduler.cpp **** 
  40:src/Scheduler.cpp **** void Scheduler::put(ThreadK *thread) {
  41:src/Scheduler.cpp ****     if (instance->listTail) {
  42:src/Scheduler.cpp ****         instance->listTail->nextThread = thread;
  43:src/Scheduler.cpp ****         instance->listTail = instance->listTail->nextThread;
  44:src/Scheduler.cpp ****     } else {
  45:src/Scheduler.cpp ****         instance->listHead = instance->listTail = thread;
  46:src/Scheduler.cpp ****     }
  47:src/Scheduler.cpp **** }
GAS LISTING /tmp/cct9MrVL.s 			page 2


  48:src/Scheduler.cpp **** 
  49:src/Scheduler.cpp **** Scheduler *Scheduler::initialize() {
  50:src/Scheduler.cpp ****     if (instance == nullptr) {
  51:src/Scheduler.cpp ****         instance = (Scheduler *) MemoryAllocator::kmem_alloc(sizeof(Scheduler));
  52:src/Scheduler.cpp ****         instance->listHead = nullptr;
  53:src/Scheduler.cpp ****         instance->listTail = nullptr;
  54:src/Scheduler.cpp ****         instance->idleThread = ThreadK::createThread((ThreadK::Body) &Scheduler::idle, nullptr,
  55:src/Scheduler.cpp ****                                                      (uint64 *) MemoryAllocator::kmem_alloc(
  56:src/Scheduler.cpp ****                                                              DEFAULT_STACK_SIZE * sizeof(uint64)), 
  57:src/Scheduler.cpp ****     }
  58:src/Scheduler.cpp ****     return instance;
  59:src/Scheduler.cpp **** }
  60:src/Scheduler.cpp **** 
  61:src/Scheduler.cpp **** void Scheduler::idle(void *arg) {
  12              		.loc 1 61 33
  13              		.cfi_startproc
  14              	.LVL0:
  15 0000 130101FF 		addi	sp,sp,-16
  16              		.cfi_def_cfa_offset 16
  17 0004 23348100 		sd	s0,8(sp)
  18              		.cfi_offset 8, -8
  19 0008 13040101 		addi	s0,sp,16
  20              		.cfi_def_cfa 8, 0
  21              	.L2:
  62:src/Scheduler.cpp ****     while (true) {}
  22              		.loc 1 62 5 discriminator 1
  23              		.loc 1 62 5 discriminator 1
  24 000c 6F000000 		j	.L2
  25              		.cfi_endproc
  26              	.LFE11:
  28              		.align	2
  29              		.globl	_ZN9Scheduler3getEv
  31              	_ZN9Scheduler3getEv:
  32              	.LFB8:
  10:src/Scheduler.cpp ****     ThreadK *tmp = instance->listHead;
  33              		.loc 1 10 27
  34              		.cfi_startproc
  35 0010 130101FF 		addi	sp,sp,-16
  36              		.cfi_def_cfa_offset 16
  37 0014 23348100 		sd	s0,8(sp)
  38              		.cfi_offset 8, -8
  39 0018 13040101 		addi	s0,sp,16
  40              		.cfi_def_cfa 8, 0
  11:src/Scheduler.cpp ****     if(tmp->body == idle){
  41              		.loc 1 11 5
  11:src/Scheduler.cpp ****     if(tmp->body == idle){
  42              		.loc 1 11 30 is_stmt 0
  43 001c 97060000 		ld	a3,.LANCHOR0
  43      83B60600 
  11:src/Scheduler.cpp ****     if(tmp->body == idle){
  44              		.loc 1 11 14
  45 0024 03B58600 		ld	a0,8(a3)
  46              	.LVL1:
  12:src/Scheduler.cpp ****         tmp = tmp->nextThread;
  47              		.loc 1 12 5 is_stmt 1
  48              	.LBB2:
  12:src/Scheduler.cpp ****         tmp = tmp->nextThread;
GAS LISTING /tmp/cct9MrVL.s 			page 3


  49              		.loc 1 12 13 is_stmt 0
  50 0028 03370500 		ld	a4,0(a0)
  12:src/Scheduler.cpp ****         tmp = tmp->nextThread;
  51              		.loc 1 12 5
  52 002c 97070000 		lla	a5,_ZN9Scheduler4idleEPv
  52      93870700 
  53 0034 6302F702 		beq	a4,a5,.L14
  54              	.L5:
  55              	.LBE2:
  34:src/Scheduler.cpp ****     if (!instance->listHead) instance->listTail = nullptr;
  56              		.loc 1 34 5 is_stmt 1
  34:src/Scheduler.cpp ****     if (!instance->listHead) instance->listTail = nullptr;
  57              		.loc 1 34 36 is_stmt 0
  58 0038 83B78600 		ld	a5,8(a3)
  34:src/Scheduler.cpp ****     if (!instance->listHead) instance->listTail = nullptr;
  59              		.loc 1 34 46
  60 003c 83B70702 		ld	a5,32(a5)
  34:src/Scheduler.cpp ****     if (!instance->listHead) instance->listTail = nullptr;
  61              		.loc 1 34 24
  62 0040 23B4F600 		sd	a5,8(a3)
  35:src/Scheduler.cpp ****     tmp->nextThread = nullptr;
  63              		.loc 1 35 5 is_stmt 1
  64 0044 63880706 		beqz	a5,.L15
  65              	.L10:
  36:src/Scheduler.cpp ****     return tmp;
  66              		.loc 1 36 5
  36:src/Scheduler.cpp ****     return tmp;
  67              		.loc 1 36 21 is_stmt 0
  68 0048 23300502 		sd	zero,32(a0)
  37:src/Scheduler.cpp **** }
  69              		.loc 1 37 5 is_stmt 1
  38:src/Scheduler.cpp **** 
  70              		.loc 1 38 1 is_stmt 0
  71 004c 03348100 		ld	s0,8(sp)
  72              		.cfi_remember_state
  73              		.cfi_restore 8
  74              		.cfi_def_cfa 2, 16
  75 0050 13010101 		addi	sp,sp,16
  76              		.cfi_def_cfa_offset 0
  77 0054 67800000 		jr	ra
  78              	.L14:
  79              		.cfi_restore_state
  80              	.LBB9:
  81              	.LBB3:
  13:src/Scheduler.cpp ****         bool flag = false;
  82              		.loc 1 13 9 is_stmt 1
  13:src/Scheduler.cpp ****         bool flag = false;
  83              		.loc 1 13 13 is_stmt 0
  84 0058 03360502 		ld	a2,32(a0)
  85              	.LVL2:
  14:src/Scheduler.cpp ****         while(tmp){
  86              		.loc 1 14 9 is_stmt 1
  13:src/Scheduler.cpp ****         bool flag = false;
  87              		.loc 1 13 13 is_stmt 0
  88 005c 93070600 		mv	a5,a2
  89              	.LVL3:
  90              	.L7:
GAS LISTING /tmp/cct9MrVL.s 			page 4


  15:src/Scheduler.cpp ****             if(!tmp->systemThread){
  91              		.loc 1 15 9 is_stmt 1
  15:src/Scheduler.cpp ****             if(!tmp->systemThread){
  92              		.loc 1 15 15
  93 0060 638A0700 		beqz	a5,.L11
  16:src/Scheduler.cpp ****                 flag = true;
  94              		.loc 1 16 13
  16:src/Scheduler.cpp ****                 flag = true;
  95              		.loc 1 16 22 is_stmt 0
  96 0064 03C71707 		lbu	a4,113(a5)
  16:src/Scheduler.cpp ****                 flag = true;
  97              		.loc 1 16 13
  98 0068 630C0702 		beqz	a4,.L12
  21:src/Scheduler.cpp ****             }
  99              		.loc 1 21 17 is_stmt 1
  21:src/Scheduler.cpp ****             }
 100              		.loc 1 21 21 is_stmt 0
 101 006c 83B70702 		ld	a5,32(a5)
 102              	.LVL4:
  15:src/Scheduler.cpp ****             if(!tmp->systemThread){
 103              		.loc 1 15 9
 104 0070 6FF01FFF 		j	.L7
 105              	.L11:
  14:src/Scheduler.cpp ****         while(tmp){
 106              		.loc 1 14 14
 107 0074 93070000 		li	a5,0
 108              	.LVL5:
 109              	.L6:
  25:src/Scheduler.cpp ****             ThreadK* tmp1 = instance->listHead;
 110              		.loc 1 25 9 is_stmt 1
 111              	.LBB4:
 112 0078 63800702 		beqz	a5,.L8
 113              	.LBB5:
  26:src/Scheduler.cpp ****             instance->listHead = instance->listHead->nextThread;
 114              		.loc 1 26 13
 115              	.LVL6:
  27:src/Scheduler.cpp ****             tmp1->nextThread = nullptr;
 116              		.loc 1 27 13
  27:src/Scheduler.cpp ****             tmp1->nextThread = nullptr;
 117              		.loc 1 27 32 is_stmt 0
 118 007c 23B4C600 		sd	a2,8(a3)
  28:src/Scheduler.cpp ****             if(!instance->listHead) instance->listHead = instance->listTail = tmp1;
 119              		.loc 1 28 13 is_stmt 1
  28:src/Scheduler.cpp ****             if(!instance->listHead) instance->listHead = instance->listTail = tmp1;
 120              		.loc 1 28 30 is_stmt 0
 121 0080 23300502 		sd	zero,32(a0)
  29:src/Scheduler.cpp ****             else instance->listTail = instance->listTail->nextThread = tmp1;
 122              		.loc 1 29 13 is_stmt 1
  29:src/Scheduler.cpp ****             else instance->listTail = instance->listTail->nextThread = tmp1;
 123              		.loc 1 29 27 is_stmt 0
 124 0084 83B78600 		ld	a5,8(a3)
 125              	.LVL7:
  29:src/Scheduler.cpp ****             else instance->listTail = instance->listTail->nextThread = tmp1;
 126              		.loc 1 29 13
 127 0088 63800702 		beqz	a5,.L16
  30:src/Scheduler.cpp ****         }
 128              		.loc 1 30 18 is_stmt 1
GAS LISTING /tmp/cct9MrVL.s 			page 5


  30:src/Scheduler.cpp ****         }
 129              		.loc 1 30 49 is_stmt 0
 130 008c 83B70601 		ld	a5,16(a3)
  30:src/Scheduler.cpp ****         }
 131              		.loc 1 30 70
 132 0090 23B0A702 		sd	a0,32(a5)
  30:src/Scheduler.cpp ****         }
 133              		.loc 1 30 37
 134 0094 23B8A600 		sd	a0,16(a3)
 135              	.LVL8:
 136              	.L8:
 137              	.LBE5:
 138              	.LBE4:
  32:src/Scheduler.cpp ****     }
 139              		.loc 1 32 9 is_stmt 1
  32:src/Scheduler.cpp ****     }
 140              		.loc 1 32 13 is_stmt 0
 141 0098 03B58600 		ld	a0,8(a3)
 142              	.LVL9:
 143              	.LBE3:
 144 009c 6FF0DFF9 		j	.L5
 145              	.LVL10:
 146              	.L12:
 147              	.LBB8:
  17:src/Scheduler.cpp ****                 break;
 148              		.loc 1 17 22
 149 00a0 93071000 		li	a5,1
 150              	.LVL11:
 151 00a4 6FF05FFD 		j	.L6
 152              	.LVL12:
 153              	.L16:
 154              	.LBB7:
 155              	.LBB6:
  29:src/Scheduler.cpp ****             else instance->listTail = instance->listTail->nextThread = tmp1;
 156              		.loc 1 29 37 is_stmt 1 discriminator 1
  29:src/Scheduler.cpp ****             else instance->listTail = instance->listTail->nextThread = tmp1;
 157              		.loc 1 29 77 is_stmt 0 discriminator 1
 158 00a8 23B8A600 		sd	a0,16(a3)
  29:src/Scheduler.cpp ****             else instance->listTail = instance->listTail->nextThread = tmp1;
 159              		.loc 1 29 56 discriminator 1
 160 00ac 23B4A600 		sd	a0,8(a3)
 161 00b0 6FF09FFE 		j	.L8
 162              	.LVL13:
 163              	.L15:
 164              	.LBE6:
 165              	.LBE7:
 166              	.LBE8:
 167              	.LBE9:
  35:src/Scheduler.cpp ****     tmp->nextThread = nullptr;
 168              		.loc 1 35 30 is_stmt 1 discriminator 1
  35:src/Scheduler.cpp ****     tmp->nextThread = nullptr;
 169              		.loc 1 35 49 is_stmt 0 discriminator 1
 170 00b4 23B80600 		sd	zero,16(a3)
 171 00b8 6FF01FF9 		j	.L10
 172              		.cfi_endproc
 173              	.LFE8:
 175              		.align	2
GAS LISTING /tmp/cct9MrVL.s 			page 6


 176              		.globl	_ZN9Scheduler3putEP7ThreadK
 178              	_ZN9Scheduler3putEP7ThreadK:
 179              	.LFB9:
  40:src/Scheduler.cpp ****     if (instance->listTail) {
 180              		.loc 1 40 38 is_stmt 1
 181              		.cfi_startproc
 182              	.LVL14:
 183 00bc 130101FF 		addi	sp,sp,-16
 184              		.cfi_def_cfa_offset 16
 185 00c0 23348100 		sd	s0,8(sp)
 186              		.cfi_offset 8, -8
 187 00c4 13040101 		addi	s0,sp,16
 188              		.cfi_def_cfa 8, 0
  41:src/Scheduler.cpp ****         instance->listTail->nextThread = thread;
 189              		.loc 1 41 5
  41:src/Scheduler.cpp ****         instance->listTail->nextThread = thread;
 190              		.loc 1 41 19 is_stmt 0
 191 00c8 97070000 		ld	a5,.LANCHOR0
 191      83B70700 
 192 00d0 03B70701 		ld	a4,16(a5)
  41:src/Scheduler.cpp ****         instance->listTail->nextThread = thread;
 193              		.loc 1 41 5
 194 00d4 63000702 		beqz	a4,.L18
  42:src/Scheduler.cpp ****         instance->listTail = instance->listTail->nextThread;
 195              		.loc 1 42 9 is_stmt 1
  42:src/Scheduler.cpp ****         instance->listTail = instance->listTail->nextThread;
 196              		.loc 1 42 40 is_stmt 0
 197 00d8 2330A702 		sd	a0,32(a4)
  43:src/Scheduler.cpp ****     } else {
 198              		.loc 1 43 9 is_stmt 1
  43:src/Scheduler.cpp ****     } else {
 199              		.loc 1 43 40 is_stmt 0
 200 00dc 03B70701 		ld	a4,16(a5)
  43:src/Scheduler.cpp ****     } else {
 201              		.loc 1 43 50
 202 00e0 03370702 		ld	a4,32(a4)
  43:src/Scheduler.cpp ****     } else {
 203              		.loc 1 43 28
 204 00e4 23B8E700 		sd	a4,16(a5)
 205              	.L17:
  47:src/Scheduler.cpp **** 
 206              		.loc 1 47 1
 207 00e8 03348100 		ld	s0,8(sp)
 208              		.cfi_remember_state
 209              		.cfi_restore 8
 210              		.cfi_def_cfa 2, 16
 211 00ec 13010101 		addi	sp,sp,16
 212              		.cfi_def_cfa_offset 0
 213 00f0 67800000 		jr	ra
 214              	.L18:
 215              		.cfi_restore_state
  45:src/Scheduler.cpp ****     }
 216              		.loc 1 45 9 is_stmt 1
  45:src/Scheduler.cpp ****     }
 217              		.loc 1 45 49 is_stmt 0
 218 00f4 23B8A700 		sd	a0,16(a5)
  45:src/Scheduler.cpp ****     }
GAS LISTING /tmp/cct9MrVL.s 			page 7


 219              		.loc 1 45 28
 220 00f8 23B4A700 		sd	a0,8(a5)
  47:src/Scheduler.cpp **** 
 221              		.loc 1 47 1
 222 00fc 6FF0DFFE 		j	.L17
 223              		.cfi_endproc
 224              	.LFE9:
 226              		.align	2
 227              		.globl	_ZN9Scheduler10initializeEv
 229              	_ZN9Scheduler10initializeEv:
 230              	.LFB10:
  49:src/Scheduler.cpp ****     if (instance == nullptr) {
 231              		.loc 1 49 36 is_stmt 1
 232              		.cfi_startproc
  50:src/Scheduler.cpp ****         instance = (Scheduler *) MemoryAllocator::kmem_alloc(sizeof(Scheduler));
 233              		.loc 1 50 5
  50:src/Scheduler.cpp ****         instance = (Scheduler *) MemoryAllocator::kmem_alloc(sizeof(Scheduler));
 234              		.loc 1 50 18 is_stmt 0
 235 0100 97070000 		ld	a5,.LANCHOR0
 235      83B70700 
  50:src/Scheduler.cpp ****         instance = (Scheduler *) MemoryAllocator::kmem_alloc(sizeof(Scheduler));
 236              		.loc 1 50 5
 237 0108 63880700 		beqz	a5,.L27
  58:src/Scheduler.cpp **** }
 238              		.loc 1 58 5 is_stmt 1
  59:src/Scheduler.cpp **** 
 239              		.loc 1 59 1 is_stmt 0
 240 010c 17050000 		ld	a0,.LANCHOR0
 240      03350500 
 241 0114 67800000 		ret
 242              	.L27:
  49:src/Scheduler.cpp ****     if (instance == nullptr) {
 243              		.loc 1 49 36
 244 0118 130101FE 		addi	sp,sp,-32
 245              		.cfi_def_cfa_offset 32
 246 011c 233C1100 		sd	ra,24(sp)
 247 0120 23388100 		sd	s0,16(sp)
 248 0124 23349100 		sd	s1,8(sp)
 249              		.cfi_offset 1, -8
 250              		.cfi_offset 8, -16
 251              		.cfi_offset 9, -24
 252 0128 13040102 		addi	s0,sp,32
 253              		.cfi_def_cfa 8, 0
  51:src/Scheduler.cpp ****         instance->listHead = nullptr;
 254              		.loc 1 51 9 is_stmt 1
  51:src/Scheduler.cpp ****         instance->listHead = nullptr;
 255              		.loc 1 51 61 is_stmt 0
 256 012c 13058001 		li	a0,24
 257 0130 97000000 		call	_ZN15MemoryAllocator10kmem_allocEm@plt
 257      E7800000 
 258              	.LVL15:
  51:src/Scheduler.cpp ****         instance->listHead = nullptr;
 259              		.loc 1 51 18
 260 0138 97040000 		lla	s1,.LANCHOR0
 260      93840400 
 261 0140 23B0A400 		sd	a0,0(s1)
  52:src/Scheduler.cpp ****         instance->listTail = nullptr;
GAS LISTING /tmp/cct9MrVL.s 			page 8


 262              		.loc 1 52 9 is_stmt 1
  52:src/Scheduler.cpp ****         instance->listTail = nullptr;
 263              		.loc 1 52 28 is_stmt 0
 264 0144 23340500 		sd	zero,8(a0)
  53:src/Scheduler.cpp ****         instance->idleThread = ThreadK::createThread((ThreadK::Body) &Scheduler::idle, nullptr,
 265              		.loc 1 53 9 is_stmt 1
  53:src/Scheduler.cpp ****         instance->idleThread = ThreadK::createThread((ThreadK::Body) &Scheduler::idle, nullptr,
 266              		.loc 1 53 28 is_stmt 0
 267 0148 23380500 		sd	zero,16(a0)
  54:src/Scheduler.cpp ****                                                      (uint64 *) MemoryAllocator::kmem_alloc(
 268              		.loc 1 54 9 is_stmt 1
  55:src/Scheduler.cpp ****                                                              DEFAULT_STACK_SIZE * sizeof(uint64)), 
 269              		.loc 1 55 92 is_stmt 0
 270 014c 37850000 		li	a0,32768
 271 0150 97000000 		call	_ZN15MemoryAllocator10kmem_allocEm@plt
 271      E7800000 
 272              	.LVL16:
 273 0158 13060500 		mv	a2,a0
  54:src/Scheduler.cpp ****                                                      (uint64 *) MemoryAllocator::kmem_alloc(
 274              		.loc 1 54 19
 275 015c 83B40400 		ld	s1,0(s1)
  54:src/Scheduler.cpp ****                                                      (uint64 *) MemoryAllocator::kmem_alloc(
 276              		.loc 1 54 53
 277 0160 13070000 		li	a4,0
 278 0164 93060000 		li	a3,0
 279 0168 93050000 		li	a1,0
 280 016c 17050000 		lla	a0,_ZN9Scheduler4idleEPv
 280      13050500 
 281 0174 97000000 		call	_ZN7ThreadK12createThreadEPFvPvES0_Pmbb@plt
 281      E7800000 
 282              	.LVL17:
  54:src/Scheduler.cpp ****                                                      (uint64 *) MemoryAllocator::kmem_alloc(
 283              		.loc 1 54 30
 284 017c 23B0A400 		sd	a0,0(s1)
  58:src/Scheduler.cpp **** }
 285              		.loc 1 58 5 is_stmt 1
  59:src/Scheduler.cpp **** 
 286              		.loc 1 59 1 is_stmt 0
 287 0180 17050000 		ld	a0,.LANCHOR0
 287      03350500 
 288 0188 83308101 		ld	ra,24(sp)
 289              		.cfi_restore 1
 290 018c 03340101 		ld	s0,16(sp)
 291              		.cfi_restore 8
 292              		.cfi_def_cfa 2, 32
 293 0190 83348100 		ld	s1,8(sp)
 294              		.cfi_restore 9
 295 0194 13010102 		addi	sp,sp,32
 296              		.cfi_def_cfa_offset 0
 297 0198 67800000 		jr	ra
 298              		.cfi_endproc
 299              	.LFE10:
 301              		.align	2
 302              		.globl	_ZN9Scheduler12deInitializeEv
 304              	_ZN9Scheduler12deInitializeEv:
 305              	.LFB12:
  63:src/Scheduler.cpp **** }
GAS LISTING /tmp/cct9MrVL.s 			page 9


  64:src/Scheduler.cpp **** 
  65:src/Scheduler.cpp **** int Scheduler::deInitialize() {
 306              		.loc 1 65 31 is_stmt 1
 307              		.cfi_startproc
 308 019c 130101FE 		addi	sp,sp,-32
 309              		.cfi_def_cfa_offset 32
 310 01a0 233C1100 		sd	ra,24(sp)
 311 01a4 23388100 		sd	s0,16(sp)
 312 01a8 23349100 		sd	s1,8(sp)
 313              		.cfi_offset 1, -8
 314              		.cfi_offset 8, -16
 315              		.cfi_offset 9, -24
 316 01ac 13040102 		addi	s0,sp,32
 317              		.cfi_def_cfa 8, 0
  66:src/Scheduler.cpp ****     delete instance->idleThread;
 318              		.loc 1 66 5
 319              		.loc 1 66 22 is_stmt 0
 320 01b0 97070000 		ld	a5,.LANCHOR0
 320      83B70700 
 321 01b8 83B40700 		ld	s1,0(a5)
 322              		.loc 1 66 32
 323 01bc 638E0400 		beqz	s1,.L29
 324              		.loc 1 66 22 discriminator 1
 325 01c0 13850400 		mv	a0,s1
 326 01c4 97000000 		call	_ZN7ThreadKD1Ev@plt
 326      E7800000 
 327              	.LVL18:
 328 01cc 13850400 		mv	a0,s1
 329 01d0 97000000 		call	_ZN7ThreadKdlEPv@plt
 329      E7800000 
 330              	.LVL19:
 331              	.L29:
  67:src/Scheduler.cpp ****     return MemoryAllocator::kmem_free(instance);
 332              		.loc 1 67 5 is_stmt 1
 333              		.loc 1 67 38 is_stmt 0
 334 01d8 17050000 		ld	a0,.LANCHOR0
 334      03350500 
 335 01e0 97000000 		call	_ZN15MemoryAllocator9kmem_freeEPv@plt
 335      E7800000 
 336              	.LVL20:
  68:src/Scheduler.cpp **** 
  69:src/Scheduler.cpp **** }
 337              		.loc 1 69 1
 338 01e8 83308101 		ld	ra,24(sp)
 339              		.cfi_restore 1
 340 01ec 03340101 		ld	s0,16(sp)
 341              		.cfi_restore 8
 342              		.cfi_def_cfa 2, 32
 343 01f0 83348100 		ld	s1,8(sp)
 344              		.cfi_restore 9
 345 01f4 13010102 		addi	sp,sp,32
 346              		.cfi_def_cfa_offset 0
 347 01f8 67800000 		jr	ra
 348              		.cfi_endproc
 349              	.LFE12:
 351              		.globl	_ZN9Scheduler8instanceE
 352              		.bss
GAS LISTING /tmp/cct9MrVL.s 			page 10


 353              		.align	3
 354              		.set	.LANCHOR0,. + 0
 357              	_ZN9Scheduler8instanceE:
 358 0000 00000000 		.zero	8
 358      00000000 
 359              		.text
 360              	.Letext0:
 361              		.file 2 "src/../h/../h/../lib/hw.h"
 362              		.file 3 "src/../h/../h/MemoryAllocator.hpp"
 363              		.file 4 "src/../h/Scheduler.hpp"
 364              		.file 5 "src/../h/ThreadK.hpp"
 365              		.file 6 "src/../h/../h/syscall_c.h"
GAS LISTING /tmp/cct9MrVL.s 			page 11

