GAS LISTING /tmp/ccbcbBdY.s 			page 1


   1              		.file	"syscall_c.cpp"
   2              		.option pic
   3              		.option norelax
   4              		.text
   5              	.Ltext0:
   6              		.align	2
   7              		.globl	_Z9abiCalleriPm
   9              	_Z9abiCalleriPm:
  10              	.LFB8:
  11              		.file 1 "src/syscall_c.cpp"
   1:src/syscall_c.cpp **** //
   2:src/syscall_c.cpp **** // Created by os on 5/16/22.
   3:src/syscall_c.cpp **** //
   4:src/syscall_c.cpp **** #include "../h/syscall_c.h"
   5:src/syscall_c.cpp **** 
   6:src/syscall_c.cpp **** void* abiCaller(int code, uint64* args){//kad udjem ovde, u a1 mi se nalazi odgovarajuci argument
  12              		.loc 1 6 40
  13              		.cfi_startproc
  14              	.LVL0:
  15 0000 130101FF 		addi	sp,sp,-16
  16              		.cfi_def_cfa_offset 16
  17 0004 23348100 		sd	s0,8(sp)
  18              		.cfi_offset 8, -8
  19 0008 13040101 		addi	s0,sp,16
  20              		.cfi_def_cfa 8, 0
   7:src/syscall_c.cpp ****     __asm__ volatile ("ecall");
  21              		.loc 1 7 5
  22              		.loc 1 7 31 is_stmt 0
  23              	#APP
  24              	# 7 "src/syscall_c.cpp" 1
   8              	    void* retval;
  25              		ecall
  26              	# 0 "" 2
  27              		.loc 1 8 5 is_stmt 1
   9:src/syscall_c.cpp ****     __asm__ volatile ("mv a0, %[ret]" : [ret] "=r" (retval));
  28              		.loc 1 9 5
  29              		.loc 1 9 61 is_stmt 0
  30              	# 9 "src/syscall_c.cpp" 1
  10              	    return retval;
  31              		mv a0, a0
  32              	# 0 "" 2
  33              	.LVL1:
  34              		.loc 1 10 5 is_stmt 1
  11:src/syscall_c.cpp **** }
  35              		.loc 1 11 1 is_stmt 0
  36              	#NO_APP
  37 0014 03348100 		ld	s0,8(sp)
  38              		.cfi_restore 8
  39              		.cfi_def_cfa 2, 16
  40 0018 13010101 		addi	sp,sp,16
  41              		.cfi_def_cfa_offset 0
  42 001c 67800000 		jr	ra
  43              		.cfi_endproc
  44              	.LFE8:
  46              		.align	2
  47              		.globl	_Z9mem_allocm
  49              	_Z9mem_allocm:
GAS LISTING /tmp/ccbcbBdY.s 			page 2


  50              	.LFB9:
  12:src/syscall_c.cpp **** void* mem_alloc (size_t size){
  51              		.loc 1 12 30 is_stmt 1
  52              		.cfi_startproc
  53              	.LVL2:
  54 0020 130101FE 		addi	sp,sp,-32
  55              		.cfi_def_cfa_offset 32
  56 0024 233C1100 		sd	ra,24(sp)
  57 0028 23388100 		sd	s0,16(sp)
  58              		.cfi_offset 1, -8
  59              		.cfi_offset 8, -16
  60 002c 13040102 		addi	s0,sp,32
  61              		.cfi_def_cfa 8, 0
  13:src/syscall_c.cpp ****     int code = 0x01;
  62              		.loc 1 13 5
  63              	.LVL3:
  14:src/syscall_c.cpp ****     size_t inBlocks = (size+MEM_BLOCK_SIZE-1)/MEM_BLOCK_SIZE;
  64              		.loc 1 14 5
  65              		.loc 1 14 43 is_stmt 0
  66 0030 1305F503 		addi	a0,a0,63
  67              	.LVL4:
  68              		.loc 1 14 12
  69 0034 13556500 		srli	a0,a0,6
  70              	.LVL5:
  15:src/syscall_c.cpp ****     //stavljanje parametara u registre i zvanje ecall
  16:src/syscall_c.cpp ****     uint64 args[] = {inBlocks};
  71              		.loc 1 16 5 is_stmt 1
  72              		.loc 1 16 30 is_stmt 0
  73 0038 2334A4FE 		sd	a0,-24(s0)
  17:src/syscall_c.cpp ****     return abiCaller(code, args);
  74              		.loc 1 17 5 is_stmt 1
  75              		.loc 1 17 21 is_stmt 0
  76 003c 930584FE 		addi	a1,s0,-24
  77 0040 13051000 		li	a0,1
  78              	.LVL6:
  79 0044 97000000 		call	_Z9abiCalleriPm
  79      E7800000 
  80              	.LVL7:
  18:src/syscall_c.cpp **** }
  81              		.loc 1 18 1
  82 004c 83308101 		ld	ra,24(sp)
  83              		.cfi_restore 1
  84 0050 03340101 		ld	s0,16(sp)
  85              		.cfi_restore 8
  86              		.cfi_def_cfa 2, 32
  87 0054 13010102 		addi	sp,sp,32
  88              		.cfi_def_cfa_offset 0
  89 0058 67800000 		jr	ra
  90              		.cfi_endproc
  91              	.LFE9:
  93              		.align	2
  94              		.globl	_Z8mem_freePv
  96              	_Z8mem_freePv:
  97              	.LFB10:
  19:src/syscall_c.cpp **** 
  20:src/syscall_c.cpp **** int mem_free (void* data){
  98              		.loc 1 20 26 is_stmt 1
GAS LISTING /tmp/ccbcbBdY.s 			page 3


  99              		.cfi_startproc
 100              	.LVL8:
  21:src/syscall_c.cpp ****     if(!data) return -1;
 101              		.loc 1 21 5
 102 005c 63040504 		beqz	a0,.L7
  20:src/syscall_c.cpp ****     if(!data) return -1;
 103              		.loc 1 20 26 is_stmt 0
 104 0060 130101FE 		addi	sp,sp,-32
 105              		.cfi_def_cfa_offset 32
 106 0064 233C1100 		sd	ra,24(sp)
 107 0068 23388100 		sd	s0,16(sp)
 108              		.cfi_offset 1, -8
 109              		.cfi_offset 8, -16
 110 006c 13040102 		addi	s0,sp,32
 111              		.cfi_def_cfa 8, 0
  22:src/syscall_c.cpp ****     int code = 0x02;
 112              		.loc 1 22 5 is_stmt 1
 113              	.LVL9:
  23:src/syscall_c.cpp ****     uint64 args[] = {(uint64)data};
 114              		.loc 1 23 5
 115              		.loc 1 23 34 is_stmt 0
 116 0070 2334A4FE 		sd	a0,-24(s0)
  24:src/syscall_c.cpp ****     void* returnval = abiCaller(code, args);
 117              		.loc 1 24 5 is_stmt 1
 118              		.loc 1 24 32 is_stmt 0
 119 0074 930584FE 		addi	a1,s0,-24
 120 0078 13052000 		li	a0,2
 121              	.LVL10:
 122 007c 97000000 		call	_Z9abiCalleriPm
 122      E7800000 
 123              	.LVL11:
  25:src/syscall_c.cpp ****     return (returnval? -1:0);
 124              		.loc 1 25 5 is_stmt 1
 125              		.loc 1 25 22 is_stmt 0
 126 0084 631C0500 		bnez	a0,.L13
 127 0088 13050000 		li	a0,0
 128              	.LVL12:
 129              	.L6:
  26:src/syscall_c.cpp **** }
 130              		.loc 1 26 1
 131 008c 83308101 		ld	ra,24(sp)
 132              		.cfi_remember_state
 133              		.cfi_restore 1
 134 0090 03340101 		ld	s0,16(sp)
 135              		.cfi_restore 8
 136              		.cfi_def_cfa 2, 32
 137 0094 13010102 		addi	sp,sp,32
 138              		.cfi_def_cfa_offset 0
 139 0098 67800000 		jr	ra
 140              	.LVL13:
 141              	.L13:
 142              		.cfi_restore_state
  25:src/syscall_c.cpp ****     return (returnval? -1:0);
 143              		.loc 1 25 22
 144 009c 1305F0FF 		li	a0,-1
 145              	.LVL14:
 146 00a0 6FF0DFFE 		j	.L6
GAS LISTING /tmp/ccbcbBdY.s 			page 4


 147              	.LVL15:
 148              	.L7:
 149              		.cfi_def_cfa_register 2
 150              		.cfi_restore 1
 151              		.cfi_restore 8
  21:src/syscall_c.cpp ****     int code = 0x02;
 152              		.loc 1 21 23
 153 00a4 1305F0FF 		li	a0,-1
 154              	.LVL16:
 155              		.loc 1 26 1
 156 00a8 67800000 		ret
 157              		.cfi_endproc
 158              	.LFE10:
 160              		.align	2
 161              		.globl	_Z13thread_createPP7ThreadKPFvPvES2_
 163              	_Z13thread_createPP7ThreadKPFvPvES2_:
 164              	.LFB11:
  27:src/syscall_c.cpp **** 
  28:src/syscall_c.cpp **** int thread_create(thread_t *handle, void(*start_routine)(void *), void *arg){
 165              		.loc 1 28 77 is_stmt 1
 166              		.cfi_startproc
 167              	.LVL17:
 168 00ac 130101FB 		addi	sp,sp,-80
 169              		.cfi_def_cfa_offset 80
 170 00b0 23341104 		sd	ra,72(sp)
 171 00b4 23308104 		sd	s0,64(sp)
 172 00b8 233C9102 		sd	s1,56(sp)
 173 00bc 23382103 		sd	s2,48(sp)
 174 00c0 23343103 		sd	s3,40(sp)
 175              		.cfi_offset 1, -8
 176              		.cfi_offset 8, -16
 177              		.cfi_offset 9, -24
 178              		.cfi_offset 18, -32
 179              		.cfi_offset 19, -40
 180 00c4 13040105 		addi	s0,sp,80
 181              		.cfi_def_cfa 8, 0
 182 00c8 93090500 		mv	s3,a0
 183 00cc 93840500 		mv	s1,a1
 184 00d0 13090600 		mv	s2,a2
  29:src/syscall_c.cpp ****     int code = 0x11;
 185              		.loc 1 29 5
 186              	.LVL18:
  30:src/syscall_c.cpp ****     uint64* stack = (uint64*)mem_alloc(DEFAULT_STACK_SIZE*8);
 187              		.loc 1 30 5
 188              		.loc 1 30 39 is_stmt 0
 189 00d4 37850000 		li	a0,32768
 190              	.LVL19:
 191 00d8 97000000 		call	_Z9mem_allocm
 191      E7800000 
 192              	.LVL20:
  31:src/syscall_c.cpp ****     if(!stack || start_routine == nullptr){
 193              		.loc 1 31 5 is_stmt 1
 194 00e0 630A0504 		beqz	a0,.L16
 195              		.loc 1 31 15 is_stmt 0 discriminator 1
 196 00e4 638C0404 		beqz	s1,.L17
  32:src/syscall_c.cpp ****         return -1;
  33:src/syscall_c.cpp ****     }
GAS LISTING /tmp/ccbcbBdY.s 			page 5


  34:src/syscall_c.cpp ****     uint64 args[] = {(uint64)handle, (uint64)start_routine, (uint64)arg, (uint64)stack};
 197              		.loc 1 34 5 is_stmt 1
 198              		.loc 1 34 87 is_stmt 0
 199 00e8 233834FB 		sd	s3,-80(s0)
 200 00ec 233C94FA 		sd	s1,-72(s0)
 201 00f0 233024FD 		sd	s2,-64(s0)
 202 00f4 2334A4FC 		sd	a0,-56(s0)
  35:src/syscall_c.cpp ****     void* returnval = abiCaller(code, args);
 203              		.loc 1 35 5 is_stmt 1
 204              		.loc 1 35 32 is_stmt 0
 205 00f8 930504FB 		addi	a1,s0,-80
 206 00fc 13051001 		li	a0,17
 207              	.LVL21:
 208 0100 97000000 		call	_Z9abiCalleriPm
 208      E7800000 
 209              	.LVL22:
  36:src/syscall_c.cpp ****     return (returnval? -1: 0);
 210              		.loc 1 36 5 is_stmt 1
 211              		.loc 1 36 22 is_stmt 0
 212 0108 63120502 		bnez	a0,.L20
 213 010c 13050000 		li	a0,0
 214              	.LVL23:
 215              	.L15:
  37:src/syscall_c.cpp **** }
 216              		.loc 1 37 1
 217 0110 83308104 		ld	ra,72(sp)
 218              		.cfi_remember_state
 219              		.cfi_restore 1
 220 0114 03340104 		ld	s0,64(sp)
 221              		.cfi_restore 8
 222              		.cfi_def_cfa 2, 80
 223 0118 83348103 		ld	s1,56(sp)
 224              		.cfi_restore 9
 225              	.LVL24:
 226 011c 03390103 		ld	s2,48(sp)
 227              		.cfi_restore 18
 228              	.LVL25:
 229 0120 83398102 		ld	s3,40(sp)
 230              		.cfi_restore 19
 231              	.LVL26:
 232 0124 13010105 		addi	sp,sp,80
 233              		.cfi_def_cfa_offset 0
 234 0128 67800000 		jr	ra
 235              	.LVL27:
 236              	.L20:
 237              		.cfi_restore_state
  36:src/syscall_c.cpp ****     return (returnval? -1: 0);
 238              		.loc 1 36 22
 239 012c 1305F0FF 		li	a0,-1
 240              	.LVL28:
 241 0130 6FF01FFE 		j	.L15
 242              	.LVL29:
 243              	.L16:
  32:src/syscall_c.cpp ****     }
 244              		.loc 1 32 17
 245 0134 1305F0FF 		li	a0,-1
 246              	.LVL30:
GAS LISTING /tmp/ccbcbBdY.s 			page 6


 247 0138 6FF09FFD 		j	.L15
 248              	.LVL31:
 249              	.L17:
 250 013c 1305F0FF 		li	a0,-1
 251              	.LVL32:
 252 0140 6FF01FFD 		j	.L15
 253              		.cfi_endproc
 254              	.LFE11:
 256              		.align	2
 257              		.globl	_Z15thread_dispatchv
 259              	_Z15thread_dispatchv:
 260              	.LFB12:
  38:src/syscall_c.cpp **** void thread_dispatch (){
 261              		.loc 1 38 24 is_stmt 1
 262              		.cfi_startproc
 263 0144 130101FF 		addi	sp,sp,-16
 264              		.cfi_def_cfa_offset 16
 265 0148 23341100 		sd	ra,8(sp)
 266 014c 23308100 		sd	s0,0(sp)
 267              		.cfi_offset 1, -8
 268              		.cfi_offset 8, -16
 269 0150 13040101 		addi	s0,sp,16
 270              		.cfi_def_cfa 8, 0
  39:src/syscall_c.cpp ****     int code = 0x13;
 271              		.loc 1 39 5
 272              	.LVL33:
  40:src/syscall_c.cpp ****     uint64* args = 0;
 273              		.loc 1 40 5
  41:src/syscall_c.cpp ****     abiCaller(code, args);
 274              		.loc 1 41 5
 275              		.loc 1 41 14 is_stmt 0
 276 0154 93050000 		li	a1,0
 277 0158 13053001 		li	a0,19
 278 015c 97000000 		call	_Z9abiCalleriPm
 278      E7800000 
 279              	.LVL34:
  42:src/syscall_c.cpp **** }
 280              		.loc 1 42 1
 281 0164 83308100 		ld	ra,8(sp)
 282              		.cfi_restore 1
 283 0168 03340100 		ld	s0,0(sp)
 284              		.cfi_restore 8
 285              		.cfi_def_cfa 2, 16
 286 016c 13010101 		addi	sp,sp,16
 287              		.cfi_def_cfa_offset 0
 288 0170 67800000 		jr	ra
 289              		.cfi_endproc
 290              	.LFE12:
 292              		.align	2
 293              		.globl	_Z11thread_exitv
 295              	_Z11thread_exitv:
 296              	.LFB13:
  43:src/syscall_c.cpp **** 
  44:src/syscall_c.cpp **** void thread_exit(){
 297              		.loc 1 44 19 is_stmt 1
 298              		.cfi_startproc
 299 0174 130101FF 		addi	sp,sp,-16
GAS LISTING /tmp/ccbcbBdY.s 			page 7


 300              		.cfi_def_cfa_offset 16
 301 0178 23341100 		sd	ra,8(sp)
 302 017c 23308100 		sd	s0,0(sp)
 303              		.cfi_offset 1, -8
 304              		.cfi_offset 8, -16
 305 0180 13040101 		addi	s0,sp,16
 306              		.cfi_def_cfa 8, 0
  45:src/syscall_c.cpp ****     int code = 0x12;
 307              		.loc 1 45 5
 308              	.LVL35:
  46:src/syscall_c.cpp ****     uint64* args = 0;
 309              		.loc 1 46 5
  47:src/syscall_c.cpp ****     abiCaller(code, args);
 310              		.loc 1 47 5
 311              		.loc 1 47 14 is_stmt 0
 312 0184 93050000 		li	a1,0
 313 0188 13052001 		li	a0,18
 314 018c 97000000 		call	_Z9abiCalleriPm
 314      E7800000 
 315              	.LVL36:
  48:src/syscall_c.cpp **** }
 316              		.loc 1 48 1
 317 0194 83308100 		ld	ra,8(sp)
 318              		.cfi_restore 1
 319 0198 03340100 		ld	s0,0(sp)
 320              		.cfi_restore 8
 321              		.cfi_def_cfa 2, 16
 322 019c 13010101 		addi	sp,sp,16
 323              		.cfi_def_cfa_offset 0
 324 01a0 67800000 		jr	ra
 325              		.cfi_endproc
 326              	.LFE13:
 328              		.align	2
 329              		.globl	_Z8sem_openPP10SemaphoreKj
 331              	_Z8sem_openPP10SemaphoreKj:
 332              	.LFB14:
  49:src/syscall_c.cpp **** 
  50:src/syscall_c.cpp **** int sem_open(sem_t *handle, unsigned init){
 333              		.loc 1 50 43 is_stmt 1
 334              		.cfi_startproc
 335              	.LVL37:
 336 01a4 130101FE 		addi	sp,sp,-32
 337              		.cfi_def_cfa_offset 32
 338 01a8 233C1100 		sd	ra,24(sp)
 339 01ac 23388100 		sd	s0,16(sp)
 340              		.cfi_offset 1, -8
 341              		.cfi_offset 8, -16
 342 01b0 13040102 		addi	s0,sp,32
 343              		.cfi_def_cfa 8, 0
  51:src/syscall_c.cpp ****     int code = 0x21;
 344              		.loc 1 51 5
 345              	.LVL38:
  52:src/syscall_c.cpp ****     uint64 args[] = {(uint64) handle, (uint64) init};
 346              		.loc 1 52 5
 347              		.loc 1 52 52 is_stmt 0
 348 01b4 2330A4FE 		sd	a0,-32(s0)
 349              		.loc 1 52 39
GAS LISTING /tmp/ccbcbBdY.s 			page 8


 350 01b8 93950502 		slli	a1,a1,32
 351              	.LVL39:
 352 01bc 93D50502 		srli	a1,a1,32
 353              		.loc 1 52 52
 354 01c0 2334B4FE 		sd	a1,-24(s0)
  53:src/syscall_c.cpp ****     void* retval = abiCaller(code, args);
 355              		.loc 1 53 5 is_stmt 1
 356              		.loc 1 53 29 is_stmt 0
 357 01c4 930504FE 		addi	a1,s0,-32
 358 01c8 13051002 		li	a0,33
 359              	.LVL40:
 360 01cc 97000000 		call	_Z9abiCalleriPm
 360      E7800000 
 361              	.LVL41:
  54:src/syscall_c.cpp ****     return (retval? -1: 0);
 362              		.loc 1 54 5 is_stmt 1
 363              		.loc 1 54 19 is_stmt 0
 364 01d4 631C0500 		bnez	a0,.L29
 365 01d8 13050000 		li	a0,0
 366              	.LVL42:
 367              	.L26:
  55:src/syscall_c.cpp **** }
 368              		.loc 1 55 1 discriminator 4
 369 01dc 83308101 		ld	ra,24(sp)
 370              		.cfi_remember_state
 371              		.cfi_restore 1
 372 01e0 03340101 		ld	s0,16(sp)
 373              		.cfi_restore 8
 374              		.cfi_def_cfa 2, 32
 375 01e4 13010102 		addi	sp,sp,32
 376              		.cfi_def_cfa_offset 0
 377 01e8 67800000 		jr	ra
 378              	.LVL43:
 379              	.L29:
 380              		.cfi_restore_state
  54:src/syscall_c.cpp ****     return (retval? -1: 0);
 381              		.loc 1 54 19
 382 01ec 1305F0FF 		li	a0,-1
 383              	.LVL44:
 384 01f0 6FF0DFFE 		j	.L26
 385              		.cfi_endproc
 386              	.LFE14:
 388              		.align	2
 389              		.globl	_Z9sem_closeP10SemaphoreK
 391              	_Z9sem_closeP10SemaphoreK:
 392              	.LFB15:
  56:src/syscall_c.cpp **** 
  57:src/syscall_c.cpp **** int sem_close (sem_t handle){
 393              		.loc 1 57 29 is_stmt 1
 394              		.cfi_startproc
 395              	.LVL45:
  58:src/syscall_c.cpp ****     if(handle  == nullptr) return -1;
 396              		.loc 1 58 5
 397 01f4 63040504 		beqz	a0,.L32
  57:src/syscall_c.cpp ****     if(handle  == nullptr) return -1;
 398              		.loc 1 57 29 is_stmt 0
 399 01f8 130101FE 		addi	sp,sp,-32
GAS LISTING /tmp/ccbcbBdY.s 			page 9


 400              		.cfi_def_cfa_offset 32
 401 01fc 233C1100 		sd	ra,24(sp)
 402 0200 23388100 		sd	s0,16(sp)
 403              		.cfi_offset 1, -8
 404              		.cfi_offset 8, -16
 405 0204 13040102 		addi	s0,sp,32
 406              		.cfi_def_cfa 8, 0
  59:src/syscall_c.cpp ****     int code = 0x22;
 407              		.loc 1 59 5 is_stmt 1
 408              	.LVL46:
  60:src/syscall_c.cpp ****     uint64 args[] = {(uint64) handle};
 409              		.loc 1 60 5
 410              		.loc 1 60 37 is_stmt 0
 411 0208 2334A4FE 		sd	a0,-24(s0)
  61:src/syscall_c.cpp ****     void* retval = abiCaller(code, args);
 412              		.loc 1 61 5 is_stmt 1
 413              		.loc 1 61 29 is_stmt 0
 414 020c 930584FE 		addi	a1,s0,-24
 415 0210 13052002 		li	a0,34
 416              	.LVL47:
 417 0214 97000000 		call	_Z9abiCalleriPm
 417      E7800000 
 418              	.LVL48:
  62:src/syscall_c.cpp ****     return (retval? -1: 0);
 419              		.loc 1 62 5 is_stmt 1
 420              		.loc 1 62 19 is_stmt 0
 421 021c 631C0500 		bnez	a0,.L38
 422 0220 13050000 		li	a0,0
 423              	.LVL49:
 424              	.L31:
  63:src/syscall_c.cpp **** }
 425              		.loc 1 63 1
 426 0224 83308101 		ld	ra,24(sp)
 427              		.cfi_remember_state
 428              		.cfi_restore 1
 429 0228 03340101 		ld	s0,16(sp)
 430              		.cfi_restore 8
 431              		.cfi_def_cfa 2, 32
 432 022c 13010102 		addi	sp,sp,32
 433              		.cfi_def_cfa_offset 0
 434 0230 67800000 		jr	ra
 435              	.LVL50:
 436              	.L38:
 437              		.cfi_restore_state
  62:src/syscall_c.cpp ****     return (retval? -1: 0);
 438              		.loc 1 62 19
 439 0234 1305F0FF 		li	a0,-1
 440              	.LVL51:
 441 0238 6FF0DFFE 		j	.L31
 442              	.LVL52:
 443              	.L32:
 444              		.cfi_def_cfa_register 2
 445              		.cfi_restore 1
 446              		.cfi_restore 8
  58:src/syscall_c.cpp ****     int code = 0x22;
 447              		.loc 1 58 36
 448 023c 1305F0FF 		li	a0,-1
GAS LISTING /tmp/ccbcbBdY.s 			page 10


 449              	.LVL53:
 450              		.loc 1 63 1
 451 0240 67800000 		ret
 452              		.cfi_endproc
 453              	.LFE15:
 455              		.align	2
 456              		.globl	_Z8sem_waitP10SemaphoreK
 458              	_Z8sem_waitP10SemaphoreK:
 459              	.LFB16:
  64:src/syscall_c.cpp **** 
  65:src/syscall_c.cpp **** int sem_wait (sem_t id){
 460              		.loc 1 65 24 is_stmt 1
 461              		.cfi_startproc
 462              	.LVL54:
  66:src/syscall_c.cpp ****     if(id  == nullptr) return -1;
 463              		.loc 1 66 5
 464 0244 63040504 		beqz	a0,.L41
  65:src/syscall_c.cpp ****     if(id  == nullptr) return -1;
 465              		.loc 1 65 24 is_stmt 0
 466 0248 130101FE 		addi	sp,sp,-32
 467              		.cfi_def_cfa_offset 32
 468 024c 233C1100 		sd	ra,24(sp)
 469 0250 23388100 		sd	s0,16(sp)
 470              		.cfi_offset 1, -8
 471              		.cfi_offset 8, -16
 472 0254 13040102 		addi	s0,sp,32
 473              		.cfi_def_cfa 8, 0
  67:src/syscall_c.cpp ****     int code = 0x23;
 474              		.loc 1 67 5 is_stmt 1
 475              	.LVL55:
  68:src/syscall_c.cpp ****     uint64 args[] = {(uint64) id};
 476              		.loc 1 68 5
 477              		.loc 1 68 33 is_stmt 0
 478 0258 2334A4FE 		sd	a0,-24(s0)
  69:src/syscall_c.cpp ****     void* retval = abiCaller(code, args);
 479              		.loc 1 69 5 is_stmt 1
 480              		.loc 1 69 29 is_stmt 0
 481 025c 930584FE 		addi	a1,s0,-24
 482 0260 13053002 		li	a0,35
 483              	.LVL56:
 484 0264 97000000 		call	_Z9abiCalleriPm
 484      E7800000 
 485              	.LVL57:
  70:src/syscall_c.cpp ****     return (retval? -1: 0);
 486              		.loc 1 70 5 is_stmt 1
 487              		.loc 1 70 19 is_stmt 0
 488 026c 631C0500 		bnez	a0,.L47
 489 0270 13050000 		li	a0,0
 490              	.LVL58:
 491              	.L40:
  71:src/syscall_c.cpp **** }
 492              		.loc 1 71 1
 493 0274 83308101 		ld	ra,24(sp)
 494              		.cfi_remember_state
 495              		.cfi_restore 1
 496 0278 03340101 		ld	s0,16(sp)
 497              		.cfi_restore 8
GAS LISTING /tmp/ccbcbBdY.s 			page 11


 498              		.cfi_def_cfa 2, 32
 499 027c 13010102 		addi	sp,sp,32
 500              		.cfi_def_cfa_offset 0
 501 0280 67800000 		jr	ra
 502              	.LVL59:
 503              	.L47:
 504              		.cfi_restore_state
  70:src/syscall_c.cpp ****     return (retval? -1: 0);
 505              		.loc 1 70 19
 506 0284 1305F0FF 		li	a0,-1
 507              	.LVL60:
 508 0288 6FF0DFFE 		j	.L40
 509              	.LVL61:
 510              	.L41:
 511              		.cfi_def_cfa_register 2
 512              		.cfi_restore 1
 513              		.cfi_restore 8
  66:src/syscall_c.cpp ****     int code = 0x23;
 514              		.loc 1 66 32
 515 028c 1305F0FF 		li	a0,-1
 516              	.LVL62:
 517              		.loc 1 71 1
 518 0290 67800000 		ret
 519              		.cfi_endproc
 520              	.LFE16:
 522              		.align	2
 523              		.globl	_Z10sem_signalP10SemaphoreK
 525              	_Z10sem_signalP10SemaphoreK:
 526              	.LFB17:
  72:src/syscall_c.cpp **** 
  73:src/syscall_c.cpp **** int sem_signal (sem_t id){
 527              		.loc 1 73 26 is_stmt 1
 528              		.cfi_startproc
 529              	.LVL63:
  74:src/syscall_c.cpp ****     if(id  == nullptr) return -1;
 530              		.loc 1 74 5
 531 0294 63040504 		beqz	a0,.L50
  73:src/syscall_c.cpp ****     if(id  == nullptr) return -1;
 532              		.loc 1 73 26 is_stmt 0
 533 0298 130101FE 		addi	sp,sp,-32
 534              		.cfi_def_cfa_offset 32
 535 029c 233C1100 		sd	ra,24(sp)
 536 02a0 23388100 		sd	s0,16(sp)
 537              		.cfi_offset 1, -8
 538              		.cfi_offset 8, -16
 539 02a4 13040102 		addi	s0,sp,32
 540              		.cfi_def_cfa 8, 0
  75:src/syscall_c.cpp ****     int code = 0x24;
 541              		.loc 1 75 5 is_stmt 1
 542              	.LVL64:
  76:src/syscall_c.cpp ****     uint64 args[] = {(uint64) id};
 543              		.loc 1 76 5
 544              		.loc 1 76 33 is_stmt 0
 545 02a8 2334A4FE 		sd	a0,-24(s0)
  77:src/syscall_c.cpp ****     void* retval = abiCaller(code, args);
 546              		.loc 1 77 5 is_stmt 1
 547              		.loc 1 77 29 is_stmt 0
GAS LISTING /tmp/ccbcbBdY.s 			page 12


 548 02ac 930584FE 		addi	a1,s0,-24
 549 02b0 13054002 		li	a0,36
 550              	.LVL65:
 551 02b4 97000000 		call	_Z9abiCalleriPm
 551      E7800000 
 552              	.LVL66:
  78:src/syscall_c.cpp ****     return (retval? -1: 0);
 553              		.loc 1 78 5 is_stmt 1
 554              		.loc 1 78 19 is_stmt 0
 555 02bc 631C0500 		bnez	a0,.L56
 556 02c0 13050000 		li	a0,0
 557              	.LVL67:
 558              	.L49:
  79:src/syscall_c.cpp **** }
 559              		.loc 1 79 1
 560 02c4 83308101 		ld	ra,24(sp)
 561              		.cfi_remember_state
 562              		.cfi_restore 1
 563 02c8 03340101 		ld	s0,16(sp)
 564              		.cfi_restore 8
 565              		.cfi_def_cfa 2, 32
 566 02cc 13010102 		addi	sp,sp,32
 567              		.cfi_def_cfa_offset 0
 568 02d0 67800000 		jr	ra
 569              	.LVL68:
 570              	.L56:
 571              		.cfi_restore_state
  78:src/syscall_c.cpp ****     return (retval? -1: 0);
 572              		.loc 1 78 19
 573 02d4 1305F0FF 		li	a0,-1
 574              	.LVL69:
 575 02d8 6FF0DFFE 		j	.L49
 576              	.LVL70:
 577              	.L50:
 578              		.cfi_def_cfa_register 2
 579              		.cfi_restore 1
 580              		.cfi_restore 8
  74:src/syscall_c.cpp ****     int code = 0x24;
 581              		.loc 1 74 32
 582 02dc 1305F0FF 		li	a0,-1
 583              	.LVL71:
 584              		.loc 1 79 1
 585 02e0 67800000 		ret
 586              		.cfi_endproc
 587              	.LFE17:
 589              		.align	2
 590              		.globl	_Z10time_sleepm
 592              	_Z10time_sleepm:
 593              	.LFB18:
  80:src/syscall_c.cpp **** 
  81:src/syscall_c.cpp **** int time_sleep (time_t time){
 594              		.loc 1 81 29 is_stmt 1
 595              		.cfi_startproc
 596              	.LVL72:
 597 02e4 130101FE 		addi	sp,sp,-32
 598              		.cfi_def_cfa_offset 32
 599 02e8 233C1100 		sd	ra,24(sp)
GAS LISTING /tmp/ccbcbBdY.s 			page 13


 600 02ec 23388100 		sd	s0,16(sp)
 601              		.cfi_offset 1, -8
 602              		.cfi_offset 8, -16
 603 02f0 13040102 		addi	s0,sp,32
 604              		.cfi_def_cfa 8, 0
  82:src/syscall_c.cpp ****     int code = 0x31;
 605              		.loc 1 82 5
 606              	.LVL73:
  83:src/syscall_c.cpp ****     uint64 args[] = {(uint64)time};
 607              		.loc 1 83 5
 608              		.loc 1 83 34 is_stmt 0
 609 02f4 2334A4FE 		sd	a0,-24(s0)
  84:src/syscall_c.cpp ****     void* retval = abiCaller(code, args);
 610              		.loc 1 84 5 is_stmt 1
 611              		.loc 1 84 29 is_stmt 0
 612 02f8 930584FE 		addi	a1,s0,-24
 613 02fc 13051003 		li	a0,49
 614              	.LVL74:
 615 0300 97000000 		call	_Z9abiCalleriPm
 615      E7800000 
 616              	.LVL75:
  85:src/syscall_c.cpp ****     return (retval? -1: 0);
 617              		.loc 1 85 5 is_stmt 1
 618              		.loc 1 85 19 is_stmt 0
 619 0308 631C0500 		bnez	a0,.L61
 620 030c 13050000 		li	a0,0
 621              	.LVL76:
 622              	.L58:
  86:src/syscall_c.cpp **** }
 623              		.loc 1 86 1 discriminator 4
 624 0310 83308101 		ld	ra,24(sp)
 625              		.cfi_remember_state
 626              		.cfi_restore 1
 627 0314 03340101 		ld	s0,16(sp)
 628              		.cfi_restore 8
 629              		.cfi_def_cfa 2, 32
 630 0318 13010102 		addi	sp,sp,32
 631              		.cfi_def_cfa_offset 0
 632 031c 67800000 		jr	ra
 633              	.LVL77:
 634              	.L61:
 635              		.cfi_restore_state
  85:src/syscall_c.cpp ****     return (retval? -1: 0);
 636              		.loc 1 85 19
 637 0320 1305F0FF 		li	a0,-1
 638              	.LVL78:
 639 0324 6FF0DFFE 		j	.L58
 640              		.cfi_endproc
 641              	.LFE18:
 643              		.align	2
 644              		.globl	_Z4getcv
 646              	_Z4getcv:
 647              	.LFB19:
  87:src/syscall_c.cpp **** 
  88:src/syscall_c.cpp **** char getc (){
 648              		.loc 1 88 13 is_stmt 1
 649              		.cfi_startproc
GAS LISTING /tmp/ccbcbBdY.s 			page 14


 650 0328 130101FF 		addi	sp,sp,-16
 651              		.cfi_def_cfa_offset 16
 652 032c 23341100 		sd	ra,8(sp)
 653 0330 23308100 		sd	s0,0(sp)
 654              		.cfi_offset 1, -8
 655              		.cfi_offset 8, -16
 656 0334 13040101 		addi	s0,sp,16
 657              		.cfi_def_cfa 8, 0
  89:src/syscall_c.cpp ****     int code = 0x41;
 658              		.loc 1 89 5
 659              	.LVL79:
  90:src/syscall_c.cpp ****     uint64* args = 0;
 660              		.loc 1 90 5
  91:src/syscall_c.cpp ****     void* retval = abiCaller(code, args);
 661              		.loc 1 91 5
 662              		.loc 1 91 29 is_stmt 0
 663 0338 93050000 		li	a1,0
 664 033c 13051004 		li	a0,65
 665 0340 97000000 		call	_Z9abiCalleriPm
 665      E7800000 
 666              	.LVL80:
  92:src/syscall_c.cpp ****     return (char)((uint64)retval);
 667              		.loc 1 92 5 is_stmt 1
  93:src/syscall_c.cpp **** }
 668              		.loc 1 93 1 is_stmt 0
 669 0348 1375F50F 		andi	a0,a0,0xff
 670              	.LVL81:
 671 034c 83308100 		ld	ra,8(sp)
 672              		.cfi_restore 1
 673 0350 03340100 		ld	s0,0(sp)
 674              		.cfi_restore 8
 675              		.cfi_def_cfa 2, 16
 676 0354 13010101 		addi	sp,sp,16
 677              		.cfi_def_cfa_offset 0
 678 0358 67800000 		jr	ra
 679              		.cfi_endproc
 680              	.LFE19:
 682              		.align	2
 683              		.globl	_Z4putcc
 685              	_Z4putcc:
 686              	.LFB20:
  94:src/syscall_c.cpp **** 
  95:src/syscall_c.cpp **** void putc (char c){
 687              		.loc 1 95 19 is_stmt 1
 688              		.cfi_startproc
 689              	.LVL82:
 690 035c 130101FE 		addi	sp,sp,-32
 691              		.cfi_def_cfa_offset 32
 692 0360 233C1100 		sd	ra,24(sp)
 693 0364 23388100 		sd	s0,16(sp)
 694              		.cfi_offset 1, -8
 695              		.cfi_offset 8, -16
 696 0368 13040102 		addi	s0,sp,32
 697              		.cfi_def_cfa 8, 0
  96:src/syscall_c.cpp ****     int code = 0x42;
 698              		.loc 1 96 5
 699              	.LVL83:
GAS LISTING /tmp/ccbcbBdY.s 			page 15


  97:src/syscall_c.cpp ****     uint64 args[] = {(uint64)c};
 700              		.loc 1 97 5
 701              		.loc 1 97 31 is_stmt 0
 702 036c 2334A4FE 		sd	a0,-24(s0)
  98:src/syscall_c.cpp ****     abiCaller(code, args);
 703              		.loc 1 98 5 is_stmt 1
 704              		.loc 1 98 14 is_stmt 0
 705 0370 930584FE 		addi	a1,s0,-24
 706 0374 13052004 		li	a0,66
 707              	.LVL84:
 708 0378 97000000 		call	_Z9abiCalleriPm
 708      E7800000 
 709              	.LVL85:
  99:src/syscall_c.cpp **** }
 710              		.loc 1 99 1
 711 0380 83308101 		ld	ra,24(sp)
 712              		.cfi_restore 1
 713 0384 03340101 		ld	s0,16(sp)
 714              		.cfi_restore 8
 715              		.cfi_def_cfa 2, 32
 716 0388 13010102 		addi	sp,sp,32
 717              		.cfi_def_cfa_offset 0
 718 038c 67800000 		jr	ra
 719              		.cfi_endproc
 720              	.LFE20:
 722              		.align	2
 723              		.globl	_Z18thread_create_onlyPP7ThreadKPFvPvES2_
 725              	_Z18thread_create_onlyPP7ThreadKPFvPvES2_:
 726              	.LFB21:
 100:src/syscall_c.cpp **** 
 101:src/syscall_c.cpp **** int thread_create_only(thread_t *handle, void (*start_routine)(void *), void *arg) {
 727              		.loc 1 101 84 is_stmt 1
 728              		.cfi_startproc
 729              	.LVL86:
 730 0390 130101FB 		addi	sp,sp,-80
 731              		.cfi_def_cfa_offset 80
 732 0394 23341104 		sd	ra,72(sp)
 733 0398 23308104 		sd	s0,64(sp)
 734 039c 233C9102 		sd	s1,56(sp)
 735 03a0 23382103 		sd	s2,48(sp)
 736 03a4 23343103 		sd	s3,40(sp)
 737              		.cfi_offset 1, -8
 738              		.cfi_offset 8, -16
 739              		.cfi_offset 9, -24
 740              		.cfi_offset 18, -32
 741              		.cfi_offset 19, -40
 742 03a8 13040105 		addi	s0,sp,80
 743              		.cfi_def_cfa 8, 0
 744 03ac 93090500 		mv	s3,a0
 745 03b0 13890500 		mv	s2,a1
 746 03b4 93040600 		mv	s1,a2
 102:src/syscall_c.cpp ****     int code = 0x14;
 747              		.loc 1 102 5
 748              	.LVL87:
 103:src/syscall_c.cpp ****     uint64* stack = (uint64*)mem_alloc(DEFAULT_STACK_SIZE*8);
 749              		.loc 1 103 5
 750              		.loc 1 103 39 is_stmt 0
GAS LISTING /tmp/ccbcbBdY.s 			page 16


 751 03b8 37850000 		li	a0,32768
 752              	.LVL88:
 753 03bc 97000000 		call	_Z9mem_allocm
 753      E7800000 
 754              	.LVL89:
 104:src/syscall_c.cpp ****     if(!stack){
 755              		.loc 1 104 5 is_stmt 1
 756 03c4 63080504 		beqz	a0,.L68
 105:src/syscall_c.cpp ****         return -1;
 106:src/syscall_c.cpp ****     }
 107:src/syscall_c.cpp ****     uint64 args[] = {(uint64)handle, (uint64)start_routine, (uint64)arg, (uint64)stack};
 757              		.loc 1 107 5
 758              		.loc 1 107 87 is_stmt 0
 759 03c8 233834FB 		sd	s3,-80(s0)
 760 03cc 233C24FB 		sd	s2,-72(s0)
 761 03d0 233094FC 		sd	s1,-64(s0)
 762 03d4 2334A4FC 		sd	a0,-56(s0)
 108:src/syscall_c.cpp ****     void* returnval = abiCaller(code, args);
 763              		.loc 1 108 5 is_stmt 1
 764              		.loc 1 108 32 is_stmt 0
 765 03d8 930504FB 		addi	a1,s0,-80
 766 03dc 13054001 		li	a0,20
 767              	.LVL90:
 768 03e0 97000000 		call	_Z9abiCalleriPm
 768      E7800000 
 769              	.LVL91:
 109:src/syscall_c.cpp ****     return (returnval? -1: 0);
 770              		.loc 1 109 5 is_stmt 1
 771              		.loc 1 109 22 is_stmt 0
 772 03e8 63120502 		bnez	a0,.L71
 773 03ec 13050000 		li	a0,0
 774              	.LVL92:
 775              	.L67:
 110:src/syscall_c.cpp **** }
 776              		.loc 1 110 1
 777 03f0 83308104 		ld	ra,72(sp)
 778              		.cfi_remember_state
 779              		.cfi_restore 1
 780 03f4 03340104 		ld	s0,64(sp)
 781              		.cfi_restore 8
 782              		.cfi_def_cfa 2, 80
 783 03f8 83348103 		ld	s1,56(sp)
 784              		.cfi_restore 9
 785              	.LVL93:
 786 03fc 03390103 		ld	s2,48(sp)
 787              		.cfi_restore 18
 788              	.LVL94:
 789 0400 83398102 		ld	s3,40(sp)
 790              		.cfi_restore 19
 791              	.LVL95:
 792 0404 13010105 		addi	sp,sp,80
 793              		.cfi_def_cfa_offset 0
 794 0408 67800000 		jr	ra
 795              	.LVL96:
 796              	.L71:
 797              		.cfi_restore_state
 109:src/syscall_c.cpp ****     return (returnval? -1: 0);
GAS LISTING /tmp/ccbcbBdY.s 			page 17


 798              		.loc 1 109 22
 799 040c 1305F0FF 		li	a0,-1
 800              	.LVL97:
 801 0410 6FF01FFE 		j	.L67
 802              	.LVL98:
 803              	.L68:
 105:src/syscall_c.cpp ****     }
 804              		.loc 1 105 17
 805 0414 1305F0FF 		li	a0,-1
 806              	.LVL99:
 807 0418 6FF09FFD 		j	.L67
 808              		.cfi_endproc
 809              	.LFE21:
 811              		.align	2
 812              		.globl	_Z12thread_startP7ThreadK
 814              	_Z12thread_startP7ThreadK:
 815              	.LFB22:
 111:src/syscall_c.cpp **** 
 112:src/syscall_c.cpp **** int thread_start(thread_t handle) {
 816              		.loc 1 112 35 is_stmt 1
 817              		.cfi_startproc
 818              	.LVL100:
 819 041c 130101FE 		addi	sp,sp,-32
 820              		.cfi_def_cfa_offset 32
 821 0420 233C1100 		sd	ra,24(sp)
 822 0424 23388100 		sd	s0,16(sp)
 823              		.cfi_offset 1, -8
 824              		.cfi_offset 8, -16
 825 0428 13040102 		addi	s0,sp,32
 826              		.cfi_def_cfa 8, 0
 113:src/syscall_c.cpp ****     int code = 0x15;
 827              		.loc 1 113 5
 828              	.LVL101:
 114:src/syscall_c.cpp ****     uint64 args[] = {(uint64)handle};
 829              		.loc 1 114 5
 830              		.loc 1 114 36 is_stmt 0
 831 042c 2334A4FE 		sd	a0,-24(s0)
 115:src/syscall_c.cpp ****     void* returnval = abiCaller(code, args);
 832              		.loc 1 115 5 is_stmt 1
 833              		.loc 1 115 32 is_stmt 0
 834 0430 930584FE 		addi	a1,s0,-24
 835 0434 13055001 		li	a0,21
 836              	.LVL102:
 837 0438 97000000 		call	_Z9abiCalleriPm
 837      E7800000 
 838              	.LVL103:
 116:src/syscall_c.cpp ****     return (returnval? -1: 0);
 839              		.loc 1 116 5 is_stmt 1
 840              		.loc 1 116 22 is_stmt 0
 841 0440 631C0500 		bnez	a0,.L76
 842 0444 13050000 		li	a0,0
 843              	.LVL104:
 844              	.L73:
 117:src/syscall_c.cpp **** }
 845              		.loc 1 117 1 discriminator 4
 846 0448 83308101 		ld	ra,24(sp)
 847              		.cfi_remember_state
GAS LISTING /tmp/ccbcbBdY.s 			page 18


 848              		.cfi_restore 1
 849 044c 03340101 		ld	s0,16(sp)
 850              		.cfi_restore 8
 851              		.cfi_def_cfa 2, 32
 852 0450 13010102 		addi	sp,sp,32
 853              		.cfi_def_cfa_offset 0
 854 0454 67800000 		jr	ra
 855              	.LVL105:
 856              	.L76:
 857              		.cfi_restore_state
 116:src/syscall_c.cpp ****     return (returnval? -1: 0);
 858              		.loc 1 116 22
 859 0458 1305F0FF 		li	a0,-1
 860              	.LVL106:
 861 045c 6FF0DFFE 		j	.L73
 862              		.cfi_endproc
 863              	.LFE22:
 865              	.Letext0:
 866              		.file 2 "src/../h/../lib/hw.h"
 867              		.file 3 "src/../h/../h/ThreadK.hpp"
 868              		.file 4 "src/../h/syscall_c.h"
GAS LISTING /tmp/ccbcbBdY.s 			page 19

