GAS LISTING /tmp/cckUmUVM.s 			page 1


   1              		.file	"syscall_cpp.cpp"
   2              		.option pic
   3              		.option norelax
   4              		.text
   5              	.Ltext0:
   6              		.section	.text._ZN6Thread3runEv,"axG",@progbits,_ZN6Thread3runEv,comdat
   7              		.align	2
   8              		.weak	_ZN6Thread3runEv
  10              	_ZN6Thread3runEv:
  11              	.LFB8:
  12              		.file 1 "src/../h/syscall_cpp.hpp"
   1:src/../h/syscall_cpp.hpp **** //
   2:src/../h/syscall_cpp.hpp **** // Created by os on 6/20/22.
   3:src/../h/syscall_cpp.hpp **** //
   4:src/../h/syscall_cpp.hpp **** 
   5:src/../h/syscall_cpp.hpp **** #ifndef _syscall_cpp
   6:src/../h/syscall_cpp.hpp **** #define _syscall_cpp
   7:src/../h/syscall_cpp.hpp **** #include "syscall_c.h"
   8:src/../h/syscall_cpp.hpp **** 
   9:src/../h/syscall_cpp.hpp **** void* operator new (size_t);
  10:src/../h/syscall_cpp.hpp **** void operator delete (void*);
  11:src/../h/syscall_cpp.hpp **** 
  12:src/../h/syscall_cpp.hpp **** class Thread {
  13:src/../h/syscall_cpp.hpp **** public:
  14:src/../h/syscall_cpp.hpp ****     Thread (void (*body)(void*), void* arg);
  15:src/../h/syscall_cpp.hpp ****     virtual ~Thread ();
  16:src/../h/syscall_cpp.hpp ****     int start ();
  17:src/../h/syscall_cpp.hpp ****     static void dispatch ();
  18:src/../h/syscall_cpp.hpp ****     static int sleep (time_t);
  19:src/../h/syscall_cpp.hpp **** protected:
  20:src/../h/syscall_cpp.hpp ****     Thread ();
  21:src/../h/syscall_cpp.hpp ****     virtual void run () {}
  13              		.loc 1 21 18
  14              		.cfi_startproc
  15              	.LVL0:
  16 0000 130101FF 		addi	sp,sp,-16
  17              		.cfi_def_cfa_offset 16
  18 0004 23348100 		sd	s0,8(sp)
  19              		.cfi_offset 8, -8
  20 0008 13040101 		addi	s0,sp,16
  21              		.cfi_def_cfa 8, 0
  22              		.loc 1 21 26 is_stmt 0
  23 000c 03348100 		ld	s0,8(sp)
  24              		.cfi_restore 8
  25              		.cfi_def_cfa 2, 16
  26 0010 13010101 		addi	sp,sp,16
  27              		.cfi_def_cfa_offset 0
  28 0014 67800000 		jr	ra
  29              		.cfi_endproc
  30              	.LFE8:
  32              		.section	.text._ZN14PeriodicThread18periodicActivationEv,"axG",@progbits,_ZN14PeriodicThread18peri
  33              		.align	2
  34              		.weak	_ZN14PeriodicThread18periodicActivationEv
  36              	_ZN14PeriodicThread18periodicActivationEv:
  37              	.LFB9:
  22:src/../h/syscall_cpp.hpp **** private:
  23:src/../h/syscall_cpp.hpp ****     static void helperWrapper(void* arg);
GAS LISTING /tmp/cckUmUVM.s 			page 2


  24:src/../h/syscall_cpp.hpp ****     thread_t myHandle;
  25:src/../h/syscall_cpp.hpp **** };
  26:src/../h/syscall_cpp.hpp **** class Semaphore {
  27:src/../h/syscall_cpp.hpp **** public:
  28:src/../h/syscall_cpp.hpp ****     Semaphore (unsigned init = 1);
  29:src/../h/syscall_cpp.hpp ****     virtual ~Semaphore ();
  30:src/../h/syscall_cpp.hpp ****     int wait ();
  31:src/../h/syscall_cpp.hpp ****     int signal ();
  32:src/../h/syscall_cpp.hpp **** private:
  33:src/../h/syscall_cpp.hpp ****     sem_t myHandle;
  34:src/../h/syscall_cpp.hpp **** };
  35:src/../h/syscall_cpp.hpp **** class PeriodicThread : public Thread {
  36:src/../h/syscall_cpp.hpp **** protected:
  37:src/../h/syscall_cpp.hpp ****     PeriodicThread (time_t period);
  38:src/../h/syscall_cpp.hpp ****     virtual void periodicActivation () {}
  38              		.loc 1 38 18 is_stmt 1
  39              		.cfi_startproc
  40              	.LVL1:
  41 0000 130101FF 		addi	sp,sp,-16
  42              		.cfi_def_cfa_offset 16
  43 0004 23348100 		sd	s0,8(sp)
  44              		.cfi_offset 8, -8
  45 0008 13040101 		addi	s0,sp,16
  46              		.cfi_def_cfa 8, 0
  47              		.loc 1 38 41 is_stmt 0
  48 000c 03348100 		ld	s0,8(sp)
  49              		.cfi_restore 8
  50              		.cfi_def_cfa 2, 16
  51 0010 13010101 		addi	sp,sp,16
  52              		.cfi_def_cfa_offset 0
  53 0014 67800000 		jr	ra
  54              		.cfi_endproc
  55              	.LFE9:
  57              		.text
  58              		.align	2
  59              		.globl	_ZN6Thread13helperWrapperEPv
  61              	_ZN6Thread13helperWrapperEPv:
  62              	.LFB23:
  63              		.file 2 "src/syscall_cpp.cpp"
   1:src/syscall_cpp.cpp **** //
   2:src/syscall_cpp.cpp **** // Created by os on 6/21/22.
   3:src/syscall_cpp.cpp **** //
   4:src/syscall_cpp.cpp **** #include "../h/syscall_cpp.hpp"
   5:src/syscall_cpp.cpp **** 
   6:src/syscall_cpp.cpp **** Thread::Thread(void (*body)(void *), void *arg) {
   7:src/syscall_cpp.cpp ****     thread_create_only(&myHandle, body, arg);
   8:src/syscall_cpp.cpp **** }
   9:src/syscall_cpp.cpp **** 
  10:src/syscall_cpp.cpp **** Thread::~Thread() {
  11:src/syscall_cpp.cpp ****     delete myHandle;
  12:src/syscall_cpp.cpp **** }
  13:src/syscall_cpp.cpp **** 
  14:src/syscall_cpp.cpp **** int Thread::start() {
  15:src/syscall_cpp.cpp ****     return thread_start(myHandle);
  16:src/syscall_cpp.cpp **** }
  17:src/syscall_cpp.cpp **** 
  18:src/syscall_cpp.cpp **** void Thread::dispatch() {
GAS LISTING /tmp/cckUmUVM.s 			page 3


  19:src/syscall_cpp.cpp ****     thread_dispatch();
  20:src/syscall_cpp.cpp **** }
  21:src/syscall_cpp.cpp **** 
  22:src/syscall_cpp.cpp **** int Thread::sleep(time_t time) {
  23:src/syscall_cpp.cpp ****     return time_sleep(time);
  24:src/syscall_cpp.cpp **** }
  25:src/syscall_cpp.cpp **** 
  26:src/syscall_cpp.cpp **** Thread::Thread() {
  27:src/syscall_cpp.cpp ****     thread_create_only(&myHandle, helperWrapper, this);
  28:src/syscall_cpp.cpp **** }
  29:src/syscall_cpp.cpp **** 
  30:src/syscall_cpp.cpp **** void Thread::helperWrapper(void *arg) {
  64              		.loc 2 30 39 is_stmt 1
  65              		.cfi_startproc
  66              	.LVL2:
  67 0000 130101FF 		addi	sp,sp,-16
  68              		.cfi_def_cfa_offset 16
  69 0004 23341100 		sd	ra,8(sp)
  70 0008 23308100 		sd	s0,0(sp)
  71              		.cfi_offset 1, -8
  72              		.cfi_offset 8, -16
  73 000c 13040101 		addi	s0,sp,16
  74              		.cfi_def_cfa 8, 0
  31:src/syscall_cpp.cpp ****     Thread *t = (Thread *) arg;
  75              		.loc 2 31 5
  76              	.LVL3:
  32:src/syscall_cpp.cpp ****     t->run();
  77              		.loc 2 32 5
  78              		.loc 2 32 12 is_stmt 0
  79 0010 83370500 		ld	a5,0(a0)
  80 0014 83B70701 		ld	a5,16(a5)
  81              		.loc 2 32 11
  82 0018 E7800700 		jalr	a5
  83              	.LVL4:
  33:src/syscall_cpp.cpp **** }
  84              		.loc 2 33 1
  85 001c 83308100 		ld	ra,8(sp)
  86              		.cfi_restore 1
  87 0020 03340100 		ld	s0,0(sp)
  88              		.cfi_restore 8
  89              		.cfi_def_cfa 2, 16
  90 0024 13010101 		addi	sp,sp,16
  91              		.cfi_def_cfa_offset 0
  92 0028 67800000 		jr	ra
  93              		.cfi_endproc
  94              	.LFE23:
  96              		.align	2
  97              		.globl	_ZN6ThreadD2Ev
  99              	_ZN6ThreadD2Ev:
 100              	.LFB14:
  10:src/syscall_cpp.cpp ****     delete myHandle;
 101              		.loc 2 10 1 is_stmt 1
 102              		.cfi_startproc
 103              		.cfi_personality 0x9b,DW.ref.__gxx_personality_v0
 104              		.cfi_lsda 0x1b,.LLSDA14
 105              	.LVL5:
 106 002c 130101FE 		addi	sp,sp,-32
GAS LISTING /tmp/cckUmUVM.s 			page 4


 107              		.cfi_def_cfa_offset 32
 108 0030 233C1100 		sd	ra,24(sp)
 109 0034 23388100 		sd	s0,16(sp)
 110 0038 23349100 		sd	s1,8(sp)
 111              		.cfi_offset 1, -8
 112              		.cfi_offset 8, -16
 113              		.cfi_offset 9, -24
 114 003c 13040102 		addi	s0,sp,32
 115              		.cfi_def_cfa 8, 0
 116              	.LBB9:
  10:src/syscall_cpp.cpp ****     delete myHandle;
 117              		.loc 2 10 17 is_stmt 0
 118 0040 97070000 		lla	a5,_ZTV6Thread+16
 118      93870700 
 119 0048 2330F500 		sd	a5,0(a0)
  11:src/syscall_cpp.cpp **** }
 120              		.loc 2 11 5 is_stmt 1
  11:src/syscall_cpp.cpp **** }
 121              		.loc 2 11 12 is_stmt 0
 122 004c 83348500 		ld	s1,8(a0)
  11:src/syscall_cpp.cpp **** }
 123              		.loc 2 11 20
 124 0050 638E0400 		beqz	s1,.L7
  11:src/syscall_cpp.cpp **** }
 125              		.loc 2 11 12 discriminator 1
 126 0054 13850400 		mv	a0,s1
 127              	.LVL6:
 128 0058 97000000 		call	_ZN7ThreadKD1Ev@plt
 128      E7800000 
 129              	.LVL7:
 130 0060 13850400 		mv	a0,s1
 131 0064 97000000 		call	_ZN7ThreadKdlEPv@plt
 131      E7800000 
 132              	.LVL8:
 133              	.L7:
 134              	.LBE9:
  12:src/syscall_cpp.cpp **** 
 135              		.loc 2 12 1
 136 006c 83308101 		ld	ra,24(sp)
 137              		.cfi_restore 1
 138 0070 03340101 		ld	s0,16(sp)
 139              		.cfi_restore 8
 140              		.cfi_def_cfa 2, 32
 141 0074 83348100 		ld	s1,8(sp)
 142              		.cfi_restore 9
 143 0078 13010102 		addi	sp,sp,32
 144              		.cfi_def_cfa_offset 0
 145 007c 67800000 		jr	ra
 146              		.cfi_endproc
 147              	.LFE14:
 148              		.globl	__gxx_personality_v0
 149              		.section	.gcc_except_table,"a",@progbits
 150              	.LLSDA14:
 151 0000 FF       		.byte	0xff
 152 0001 FF       		.byte	0xff
 153 0002 03       		.byte	0x3
 154 0003 00       		.byte	0
GAS LISTING /tmp/cckUmUVM.s 			page 5


 155              		.text
 157              		.globl	_ZN6ThreadD1Ev
 158              		.set	_ZN6ThreadD1Ev,_ZN6ThreadD2Ev
 159              		.section	.text._ZN14PeriodicThreadD2Ev,"axG",@progbits,_ZN14PeriodicThreadD5Ev,comdat
 160              		.align	2
 161              		.weak	_ZN14PeriodicThreadD2Ev
 163              	_ZN14PeriodicThreadD2Ev:
 164              	.LFB45:
  35:src/../h/syscall_cpp.hpp **** protected:
 165              		.loc 1 35 7 is_stmt 1
 166              		.cfi_startproc
 167              	.LVL9:
 168 0000 130101FF 		addi	sp,sp,-16
 169              		.cfi_def_cfa_offset 16
 170 0004 23341100 		sd	ra,8(sp)
 171 0008 23308100 		sd	s0,0(sp)
 172              		.cfi_offset 1, -8
 173              		.cfi_offset 8, -16
 174 000c 13040101 		addi	s0,sp,16
 175              		.cfi_def_cfa 8, 0
 176              	.LBB10:
  35:src/../h/syscall_cpp.hpp **** protected:
 177              		.loc 1 35 7 is_stmt 0
 178 0010 97070000 		lla	a5,_ZTV14PeriodicThread+16
 178      93870700 
 179 0018 2330F500 		sd	a5,0(a0)
 180 001c 97000000 		call	_ZN6ThreadD2Ev
 180      E7800000 
 181              	.LVL10:
 182              	.LBE10:
 183 0024 83308100 		ld	ra,8(sp)
 184              		.cfi_restore 1
 185 0028 03340100 		ld	s0,0(sp)
 186              		.cfi_restore 8
 187              		.cfi_def_cfa 2, 16
 188 002c 13010101 		addi	sp,sp,16
 189              		.cfi_def_cfa_offset 0
 190 0030 67800000 		jr	ra
 191              		.cfi_endproc
 192              	.LFE45:
 194              		.weak	_ZN14PeriodicThreadD1Ev
 195              		.set	_ZN14PeriodicThreadD1Ev,_ZN14PeriodicThreadD2Ev
 196              		.text
 197              		.align	2
 198              		.globl	_ZN9SemaphoreD2Ev
 200              	_ZN9SemaphoreD2Ev:
 201              	.LFB28:
  34:src/syscall_cpp.cpp **** 
  35:src/syscall_cpp.cpp **** Semaphore::Semaphore(unsigned int init) {
  36:src/syscall_cpp.cpp ****     sem_open(&myHandle, init);
  37:src/syscall_cpp.cpp **** }
  38:src/syscall_cpp.cpp **** 
  39:src/syscall_cpp.cpp **** Semaphore::~Semaphore() {
 202              		.loc 2 39 1 is_stmt 1
 203              		.cfi_startproc
 204              		.cfi_personality 0x9b,DW.ref.__gxx_personality_v0
 205              		.cfi_lsda 0x1b,.LLSDA28
GAS LISTING /tmp/cckUmUVM.s 			page 6


 206              	.LVL11:
 207 0080 130101FF 		addi	sp,sp,-16
 208              		.cfi_def_cfa_offset 16
 209 0084 23341100 		sd	ra,8(sp)
 210 0088 23308100 		sd	s0,0(sp)
 211              		.cfi_offset 1, -8
 212              		.cfi_offset 8, -16
 213 008c 13040101 		addi	s0,sp,16
 214              		.cfi_def_cfa 8, 0
 215              	.LBB11:
 216              		.loc 2 39 23 is_stmt 0
 217 0090 97070000 		lla	a5,_ZTV9Semaphore+16
 217      93870700 
 218 0098 2330F500 		sd	a5,0(a0)
  40:src/syscall_cpp.cpp ****     sem_close(myHandle);
 219              		.loc 2 40 5 is_stmt 1
 220              		.loc 2 40 14 is_stmt 0
 221 009c 03358500 		ld	a0,8(a0)
 222              	.LVL12:
 223 00a0 97000000 		call	_Z9sem_closeP10SemaphoreK@plt
 223      E7800000 
 224              	.LVL13:
 225              	.LBE11:
  41:src/syscall_cpp.cpp **** }
 226              		.loc 2 41 1
 227 00a8 83308100 		ld	ra,8(sp)
 228              		.cfi_restore 1
 229 00ac 03340100 		ld	s0,0(sp)
 230              		.cfi_restore 8
 231              		.cfi_def_cfa 2, 16
 232 00b0 13010101 		addi	sp,sp,16
 233              		.cfi_def_cfa_offset 0
 234 00b4 67800000 		jr	ra
 235              		.cfi_endproc
 236              	.LFE28:
 237              		.section	.gcc_except_table
 238              	.LLSDA28:
 239 0004 FF       		.byte	0xff
 240 0005 FF       		.byte	0xff
 241 0006 03       		.byte	0x3
 242 0007 00       		.byte	0
 243              		.text
 245              		.globl	_ZN9SemaphoreD1Ev
 246              		.set	_ZN9SemaphoreD1Ev,_ZN9SemaphoreD2Ev
 247              		.align	2
 248              		.globl	_ZN6ThreadC2EPFvPvES0_
 250              	_ZN6ThreadC2EPFvPvES0_:
 251              	.LFB11:
   6:src/syscall_cpp.cpp ****     thread_create_only(&myHandle, body, arg);
 252              		.loc 2 6 1 is_stmt 1
 253              		.cfi_startproc
 254              	.LVL14:
 255 00b8 130101FF 		addi	sp,sp,-16
 256              		.cfi_def_cfa_offset 16
 257 00bc 23341100 		sd	ra,8(sp)
 258 00c0 23308100 		sd	s0,0(sp)
 259              		.cfi_offset 1, -8
GAS LISTING /tmp/cckUmUVM.s 			page 7


 260              		.cfi_offset 8, -16
 261 00c4 13040101 		addi	s0,sp,16
 262              		.cfi_def_cfa 8, 0
 263              	.LBB12:
   6:src/syscall_cpp.cpp ****     thread_create_only(&myHandle, body, arg);
 264              		.loc 2 6 47 is_stmt 0
 265 00c8 97070000 		lla	a5,_ZTV6Thread+16
 265      93870700 
 266 00d0 2330F500 		sd	a5,0(a0)
   7:src/syscall_cpp.cpp **** }
 267              		.loc 2 7 5 is_stmt 1
   7:src/syscall_cpp.cpp **** }
 268              		.loc 2 7 23 is_stmt 0
 269 00d4 13058500 		addi	a0,a0,8
 270              	.LVL15:
 271 00d8 97000000 		call	_Z18thread_create_onlyPP7ThreadKPFvPvES2_@plt
 271      E7800000 
 272              	.LVL16:
 273              	.LBE12:
   8:src/syscall_cpp.cpp **** 
 274              		.loc 2 8 1
 275 00e0 83308100 		ld	ra,8(sp)
 276              		.cfi_restore 1
 277 00e4 03340100 		ld	s0,0(sp)
 278              		.cfi_restore 8
 279              		.cfi_def_cfa 2, 16
 280 00e8 13010101 		addi	sp,sp,16
 281              		.cfi_def_cfa_offset 0
 282 00ec 67800000 		jr	ra
 283              		.cfi_endproc
 284              	.LFE11:
 286              		.globl	_ZN6ThreadC1EPFvPvES0_
 287              		.set	_ZN6ThreadC1EPFvPvES0_,_ZN6ThreadC2EPFvPvES0_
 288              		.align	2
 289              		.globl	_ZN6Thread5startEv
 291              	_ZN6Thread5startEv:
 292              	.LFB17:
  14:src/syscall_cpp.cpp ****     return thread_start(myHandle);
 293              		.loc 2 14 21 is_stmt 1
 294              		.cfi_startproc
 295              	.LVL17:
 296 00f0 130101FF 		addi	sp,sp,-16
 297              		.cfi_def_cfa_offset 16
 298 00f4 23341100 		sd	ra,8(sp)
 299 00f8 23308100 		sd	s0,0(sp)
 300              		.cfi_offset 1, -8
 301              		.cfi_offset 8, -16
 302 00fc 13040101 		addi	s0,sp,16
 303              		.cfi_def_cfa 8, 0
  15:src/syscall_cpp.cpp **** }
 304              		.loc 2 15 5
  15:src/syscall_cpp.cpp **** }
 305              		.loc 2 15 24 is_stmt 0
 306 0100 03358500 		ld	a0,8(a0)
 307              	.LVL18:
 308 0104 97000000 		call	_Z12thread_startP7ThreadK@plt
 308      E7800000 
GAS LISTING /tmp/cckUmUVM.s 			page 8


 309              	.LVL19:
  16:src/syscall_cpp.cpp **** 
 310              		.loc 2 16 1
 311 010c 83308100 		ld	ra,8(sp)
 312              		.cfi_restore 1
 313 0110 03340100 		ld	s0,0(sp)
 314              		.cfi_restore 8
 315              		.cfi_def_cfa 2, 16
 316 0114 13010101 		addi	sp,sp,16
 317              		.cfi_def_cfa_offset 0
 318 0118 67800000 		jr	ra
 319              		.cfi_endproc
 320              	.LFE17:
 322              		.align	2
 323              		.globl	_ZN6Thread8dispatchEv
 325              	_ZN6Thread8dispatchEv:
 326              	.LFB18:
  18:src/syscall_cpp.cpp ****     thread_dispatch();
 327              		.loc 2 18 25 is_stmt 1
 328              		.cfi_startproc
 329 011c 130101FF 		addi	sp,sp,-16
 330              		.cfi_def_cfa_offset 16
 331 0120 23341100 		sd	ra,8(sp)
 332 0124 23308100 		sd	s0,0(sp)
 333              		.cfi_offset 1, -8
 334              		.cfi_offset 8, -16
 335 0128 13040101 		addi	s0,sp,16
 336              		.cfi_def_cfa 8, 0
  19:src/syscall_cpp.cpp **** }
 337              		.loc 2 19 5
  19:src/syscall_cpp.cpp **** }
 338              		.loc 2 19 20 is_stmt 0
 339 012c 97000000 		call	_Z15thread_dispatchv@plt
 339      E7800000 
 340              	.LVL20:
  20:src/syscall_cpp.cpp **** 
 341              		.loc 2 20 1
 342 0134 83308100 		ld	ra,8(sp)
 343              		.cfi_restore 1
 344 0138 03340100 		ld	s0,0(sp)
 345              		.cfi_restore 8
 346              		.cfi_def_cfa 2, 16
 347 013c 13010101 		addi	sp,sp,16
 348              		.cfi_def_cfa_offset 0
 349 0140 67800000 		jr	ra
 350              		.cfi_endproc
 351              	.LFE18:
 353              		.align	2
 354              		.globl	_ZN6Thread5sleepEm
 356              	_ZN6Thread5sleepEm:
 357              	.LFB19:
  22:src/syscall_cpp.cpp ****     return time_sleep(time);
 358              		.loc 2 22 32 is_stmt 1
 359              		.cfi_startproc
 360              	.LVL21:
 361 0144 130101FF 		addi	sp,sp,-16
 362              		.cfi_def_cfa_offset 16
GAS LISTING /tmp/cckUmUVM.s 			page 9


 363 0148 23341100 		sd	ra,8(sp)
 364 014c 23308100 		sd	s0,0(sp)
 365              		.cfi_offset 1, -8
 366              		.cfi_offset 8, -16
 367 0150 13040101 		addi	s0,sp,16
 368              		.cfi_def_cfa 8, 0
  23:src/syscall_cpp.cpp **** }
 369              		.loc 2 23 5
  23:src/syscall_cpp.cpp **** }
 370              		.loc 2 23 22 is_stmt 0
 371 0154 97000000 		call	_Z10time_sleepm@plt
 371      E7800000 
 372              	.LVL22:
  24:src/syscall_cpp.cpp **** 
 373              		.loc 2 24 1
 374 015c 83308100 		ld	ra,8(sp)
 375              		.cfi_restore 1
 376 0160 03340100 		ld	s0,0(sp)
 377              		.cfi_restore 8
 378              		.cfi_def_cfa 2, 16
 379 0164 13010101 		addi	sp,sp,16
 380              		.cfi_def_cfa_offset 0
 381 0168 67800000 		jr	ra
 382              		.cfi_endproc
 383              	.LFE19:
 385              		.align	2
 386              		.globl	_ZN14PeriodicThread15periodicWrapperEPv
 388              	_ZN14PeriodicThread15periodicWrapperEPv:
 389              	.LFB39:
  42:src/syscall_cpp.cpp **** 
  43:src/syscall_cpp.cpp **** int Semaphore::wait() {
  44:src/syscall_cpp.cpp ****     return sem_wait(myHandle);
  45:src/syscall_cpp.cpp **** }
  46:src/syscall_cpp.cpp **** 
  47:src/syscall_cpp.cpp **** int Semaphore::signal() {
  48:src/syscall_cpp.cpp ****     return sem_signal(myHandle);
  49:src/syscall_cpp.cpp **** }
  50:src/syscall_cpp.cpp **** 
  51:src/syscall_cpp.cpp **** struct periodicStruct {
  52:src/syscall_cpp.cpp ****     PeriodicThread *per;
  53:src/syscall_cpp.cpp ****     time_t t;
  54:src/syscall_cpp.cpp **** 
  55:src/syscall_cpp.cpp ****     periodicStruct(PeriodicThread *pt, time_t time) {
  56:src/syscall_cpp.cpp ****         per = pt;
  57:src/syscall_cpp.cpp ****         t = time;
  58:src/syscall_cpp.cpp ****     }
  59:src/syscall_cpp.cpp **** };
  60:src/syscall_cpp.cpp **** 
  61:src/syscall_cpp.cpp **** PeriodicThread::PeriodicThread(time_t period) : Thread(periodicWrapper, new periodicStruct(this, pe
  62:src/syscall_cpp.cpp **** 
  63:src/syscall_cpp.cpp **** }
  64:src/syscall_cpp.cpp **** 
  65:src/syscall_cpp.cpp **** void PeriodicThread::periodicWrapper(void *arg) {
 390              		.loc 2 65 49 is_stmt 1
 391              		.cfi_startproc
 392              	.LVL23:
 393 016c 130101FE 		addi	sp,sp,-32
GAS LISTING /tmp/cckUmUVM.s 			page 10


 394              		.cfi_def_cfa_offset 32
 395 0170 233C1100 		sd	ra,24(sp)
 396 0174 23388100 		sd	s0,16(sp)
 397 0178 23349100 		sd	s1,8(sp)
 398              		.cfi_offset 1, -8
 399              		.cfi_offset 8, -16
 400              		.cfi_offset 9, -24
 401 017c 13040102 		addi	s0,sp,32
 402              		.cfi_def_cfa 8, 0
 403 0180 93040500 		mv	s1,a0
  66:src/syscall_cpp.cpp ****     periodicStruct *ps = (periodicStruct *) arg;
 404              		.loc 2 66 5
 405              	.LVL24:
 406              	.L23:
  67:src/syscall_cpp.cpp ****     while (true) {
 407              		.loc 2 67 5 discriminator 1
  68:src/syscall_cpp.cpp ****         ps->per->periodicActivation();
 408              		.loc 2 68 9 discriminator 1
 409              		.loc 2 68 13 is_stmt 0 discriminator 1
 410 0184 03B50400 		ld	a0,0(s1)
 411              		.loc 2 68 37 discriminator 1
 412 0188 83370500 		ld	a5,0(a0)
 413 018c 83B78701 		ld	a5,24(a5)
 414              		.loc 2 68 36 discriminator 1
 415 0190 E7800700 		jalr	a5
 416              	.LVL25:
  69:src/syscall_cpp.cpp ****         sleep(ps->t);
 417              		.loc 2 69 9 is_stmt 1 discriminator 1
 418              		.loc 2 69 14 is_stmt 0 discriminator 1
 419 0194 03B58400 		ld	a0,8(s1)
 420 0198 97000000 		call	_ZN6Thread5sleepEm
 420      E7800000 
 421              	.LVL26:
  67:src/syscall_cpp.cpp ****     while (true) {
 422              		.loc 2 67 5 is_stmt 1 discriminator 1
 423 01a0 6FF05FFE 		j	.L23
 424              		.cfi_endproc
 425              	.LFE39:
 427              		.align	2
 428              		.globl	_ZN6ThreadC2Ev
 430              	_ZN6ThreadC2Ev:
 431              	.LFB21:
  26:src/syscall_cpp.cpp ****     thread_create_only(&myHandle, helperWrapper, this);
 432              		.loc 2 26 1
 433              		.cfi_startproc
 434              	.LVL27:
 435 01a4 130101FF 		addi	sp,sp,-16
 436              		.cfi_def_cfa_offset 16
 437 01a8 23341100 		sd	ra,8(sp)
 438 01ac 23308100 		sd	s0,0(sp)
 439              		.cfi_offset 1, -8
 440              		.cfi_offset 8, -16
 441 01b0 13040101 		addi	s0,sp,16
 442              		.cfi_def_cfa 8, 0
 443              	.LBB13:
  26:src/syscall_cpp.cpp ****     thread_create_only(&myHandle, helperWrapper, this);
 444              		.loc 2 26 16 is_stmt 0
GAS LISTING /tmp/cckUmUVM.s 			page 11


 445 01b4 97070000 		lla	a5,_ZTV6Thread+16
 445      93870700 
 446 01bc 2330F500 		sd	a5,0(a0)
  27:src/syscall_cpp.cpp **** }
 447              		.loc 2 27 5 is_stmt 1
  27:src/syscall_cpp.cpp **** }
 448              		.loc 2 27 23 is_stmt 0
 449 01c0 13060500 		mv	a2,a0
 450 01c4 97050000 		lla	a1,_ZN6Thread13helperWrapperEPv
 450      93850500 
 451 01cc 13058500 		addi	a0,a0,8
 452              	.LVL28:
 453 01d0 97000000 		call	_Z18thread_create_onlyPP7ThreadKPFvPvES2_@plt
 453      E7800000 
 454              	.LVL29:
 455              	.LBE13:
  28:src/syscall_cpp.cpp **** 
 456              		.loc 2 28 1
 457 01d8 83308100 		ld	ra,8(sp)
 458              		.cfi_restore 1
 459 01dc 03340100 		ld	s0,0(sp)
 460              		.cfi_restore 8
 461              		.cfi_def_cfa 2, 16
 462 01e0 13010101 		addi	sp,sp,16
 463              		.cfi_def_cfa_offset 0
 464 01e4 67800000 		jr	ra
 465              		.cfi_endproc
 466              	.LFE21:
 468              		.globl	_ZN6ThreadC1Ev
 469              		.set	_ZN6ThreadC1Ev,_ZN6ThreadC2Ev
 470              		.align	2
 471              		.globl	_ZN9SemaphoreC2Ej
 473              	_ZN9SemaphoreC2Ej:
 474              	.LFB25:
  35:src/syscall_cpp.cpp ****     sem_open(&myHandle, init);
 475              		.loc 2 35 1 is_stmt 1
 476              		.cfi_startproc
 477              	.LVL30:
 478 01e8 130101FF 		addi	sp,sp,-16
 479              		.cfi_def_cfa_offset 16
 480 01ec 23341100 		sd	ra,8(sp)
 481 01f0 23308100 		sd	s0,0(sp)
 482              		.cfi_offset 1, -8
 483              		.cfi_offset 8, -16
 484 01f4 13040101 		addi	s0,sp,16
 485              		.cfi_def_cfa 8, 0
 486              	.LBB14:
  35:src/syscall_cpp.cpp ****     sem_open(&myHandle, init);
 487              		.loc 2 35 39 is_stmt 0
 488 01f8 97070000 		lla	a5,_ZTV9Semaphore+16
 488      93870700 
 489 0200 2330F500 		sd	a5,0(a0)
  36:src/syscall_cpp.cpp **** }
 490              		.loc 2 36 5 is_stmt 1
  36:src/syscall_cpp.cpp **** }
 491              		.loc 2 36 13 is_stmt 0
 492 0204 13058500 		addi	a0,a0,8
GAS LISTING /tmp/cckUmUVM.s 			page 12


 493              	.LVL31:
 494 0208 97000000 		call	_Z8sem_openPP10SemaphoreKj@plt
 494      E7800000 
 495              	.LVL32:
 496              	.LBE14:
  37:src/syscall_cpp.cpp **** 
 497              		.loc 2 37 1
 498 0210 83308100 		ld	ra,8(sp)
 499              		.cfi_restore 1
 500 0214 03340100 		ld	s0,0(sp)
 501              		.cfi_restore 8
 502              		.cfi_def_cfa 2, 16
 503 0218 13010101 		addi	sp,sp,16
 504              		.cfi_def_cfa_offset 0
 505 021c 67800000 		jr	ra
 506              		.cfi_endproc
 507              	.LFE25:
 509              		.globl	_ZN9SemaphoreC1Ej
 510              		.set	_ZN9SemaphoreC1Ej,_ZN9SemaphoreC2Ej
 511              		.align	2
 512              		.globl	_ZN9Semaphore4waitEv
 514              	_ZN9Semaphore4waitEv:
 515              	.LFB31:
  43:src/syscall_cpp.cpp ****     return sem_wait(myHandle);
 516              		.loc 2 43 23 is_stmt 1
 517              		.cfi_startproc
 518              	.LVL33:
 519 0220 130101FF 		addi	sp,sp,-16
 520              		.cfi_def_cfa_offset 16
 521 0224 23341100 		sd	ra,8(sp)
 522 0228 23308100 		sd	s0,0(sp)
 523              		.cfi_offset 1, -8
 524              		.cfi_offset 8, -16
 525 022c 13040101 		addi	s0,sp,16
 526              		.cfi_def_cfa 8, 0
  44:src/syscall_cpp.cpp **** }
 527              		.loc 2 44 5
  44:src/syscall_cpp.cpp **** }
 528              		.loc 2 44 20 is_stmt 0
 529 0230 03358500 		ld	a0,8(a0)
 530              	.LVL34:
 531 0234 97000000 		call	_Z8sem_waitP10SemaphoreK@plt
 531      E7800000 
 532              	.LVL35:
  45:src/syscall_cpp.cpp **** 
 533              		.loc 2 45 1
 534 023c 83308100 		ld	ra,8(sp)
 535              		.cfi_restore 1
 536 0240 03340100 		ld	s0,0(sp)
 537              		.cfi_restore 8
 538              		.cfi_def_cfa 2, 16
 539 0244 13010101 		addi	sp,sp,16
 540              		.cfi_def_cfa_offset 0
 541 0248 67800000 		jr	ra
 542              		.cfi_endproc
 543              	.LFE31:
 545              		.align	2
GAS LISTING /tmp/cckUmUVM.s 			page 13


 546              		.globl	_ZN9Semaphore6signalEv
 548              	_ZN9Semaphore6signalEv:
 549              	.LFB32:
  47:src/syscall_cpp.cpp ****     return sem_signal(myHandle);
 550              		.loc 2 47 25 is_stmt 1
 551              		.cfi_startproc
 552              	.LVL36:
 553 024c 130101FF 		addi	sp,sp,-16
 554              		.cfi_def_cfa_offset 16
 555 0250 23341100 		sd	ra,8(sp)
 556 0254 23308100 		sd	s0,0(sp)
 557              		.cfi_offset 1, -8
 558              		.cfi_offset 8, -16
 559 0258 13040101 		addi	s0,sp,16
 560              		.cfi_def_cfa 8, 0
  48:src/syscall_cpp.cpp **** }
 561              		.loc 2 48 5
  48:src/syscall_cpp.cpp **** }
 562              		.loc 2 48 22 is_stmt 0
 563 025c 03358500 		ld	a0,8(a0)
 564              	.LVL37:
 565 0260 97000000 		call	_Z10sem_signalP10SemaphoreK@plt
 565      E7800000 
 566              	.LVL38:
  49:src/syscall_cpp.cpp **** 
 567              		.loc 2 49 1
 568 0268 83308100 		ld	ra,8(sp)
 569              		.cfi_restore 1
 570 026c 03340100 		ld	s0,0(sp)
 571              		.cfi_restore 8
 572              		.cfi_def_cfa 2, 16
 573 0270 13010101 		addi	sp,sp,16
 574              		.cfi_def_cfa_offset 0
 575 0274 67800000 		jr	ra
 576              		.cfi_endproc
 577              	.LFE32:
 579              		.align	2
 580              		.globl	_ZN7Console4getcEv
 582              	_ZN7Console4getcEv:
 583              	.LFB40:
  70:src/syscall_cpp.cpp ****     }
  71:src/syscall_cpp.cpp **** }
  72:src/syscall_cpp.cpp **** 
  73:src/syscall_cpp.cpp **** char Console::getc() {
 584              		.loc 2 73 22 is_stmt 1
 585              		.cfi_startproc
 586 0278 130101FF 		addi	sp,sp,-16
 587              		.cfi_def_cfa_offset 16
 588 027c 23341100 		sd	ra,8(sp)
 589 0280 23308100 		sd	s0,0(sp)
 590              		.cfi_offset 1, -8
 591              		.cfi_offset 8, -16
 592 0284 13040101 		addi	s0,sp,16
 593              		.cfi_def_cfa 8, 0
  74:src/syscall_cpp.cpp ****     return ::getc();
 594              		.loc 2 74 5
 595              		.loc 2 74 18 is_stmt 0
GAS LISTING /tmp/cckUmUVM.s 			page 14


 596 0288 97000000 		call	_Z4getcv@plt
 596      E7800000 
 597              	.LVL39:
  75:src/syscall_cpp.cpp **** }
 598              		.loc 2 75 1
 599 0290 83308100 		ld	ra,8(sp)
 600              		.cfi_restore 1
 601 0294 03340100 		ld	s0,0(sp)
 602              		.cfi_restore 8
 603              		.cfi_def_cfa 2, 16
 604 0298 13010101 		addi	sp,sp,16
 605              		.cfi_def_cfa_offset 0
 606 029c 67800000 		jr	ra
 607              		.cfi_endproc
 608              	.LFE40:
 610              		.align	2
 611              		.globl	_ZN7Console4putcEc
 613              	_ZN7Console4putcEc:
 614              	.LFB41:
  76:src/syscall_cpp.cpp **** 
  77:src/syscall_cpp.cpp **** void Console::putc(char c) {
 615              		.loc 2 77 28 is_stmt 1
 616              		.cfi_startproc
 617              	.LVL40:
 618 02a0 130101FF 		addi	sp,sp,-16
 619              		.cfi_def_cfa_offset 16
 620 02a4 23341100 		sd	ra,8(sp)
 621 02a8 23308100 		sd	s0,0(sp)
 622              		.cfi_offset 1, -8
 623              		.cfi_offset 8, -16
 624 02ac 13040101 		addi	s0,sp,16
 625              		.cfi_def_cfa 8, 0
  78:src/syscall_cpp.cpp ****     ::putc(c);
 626              		.loc 2 78 5
 627              		.loc 2 78 11 is_stmt 0
 628 02b0 97000000 		call	_Z4putcc@plt
 628      E7800000 
 629              	.LVL41:
  79:src/syscall_cpp.cpp **** }
 630              		.loc 2 79 1
 631 02b8 83308100 		ld	ra,8(sp)
 632              		.cfi_restore 1
 633 02bc 03340100 		ld	s0,0(sp)
 634              		.cfi_restore 8
 635              		.cfi_def_cfa 2, 16
 636 02c0 13010101 		addi	sp,sp,16
 637              		.cfi_def_cfa_offset 0
 638 02c4 67800000 		jr	ra
 639              		.cfi_endproc
 640              	.LFE41:
 642              		.align	2
 643              		.globl	_Znwm
 645              	_Znwm:
 646              	.LFB42:
  80:src/syscall_cpp.cpp **** 
  81:src/syscall_cpp.cpp **** void *operator new(size_t size) {
 647              		.loc 2 81 33 is_stmt 1
GAS LISTING /tmp/cckUmUVM.s 			page 15


 648              		.cfi_startproc
 649              	.LVL42:
 650 02c8 130101FF 		addi	sp,sp,-16
 651              		.cfi_def_cfa_offset 16
 652 02cc 23341100 		sd	ra,8(sp)
 653 02d0 23308100 		sd	s0,0(sp)
 654              		.cfi_offset 1, -8
 655              		.cfi_offset 8, -16
 656 02d4 13040101 		addi	s0,sp,16
 657              		.cfi_def_cfa 8, 0
  82:src/syscall_cpp.cpp ****     return mem_alloc(size);
 658              		.loc 2 82 5
 659              		.loc 2 82 21 is_stmt 0
 660 02d8 97000000 		call	_Z9mem_allocm@plt
 660      E7800000 
 661              	.LVL43:
  83:src/syscall_cpp.cpp **** }
 662              		.loc 2 83 1
 663 02e0 83308100 		ld	ra,8(sp)
 664              		.cfi_restore 1
 665 02e4 03340100 		ld	s0,0(sp)
 666              		.cfi_restore 8
 667              		.cfi_def_cfa 2, 16
 668 02e8 13010101 		addi	sp,sp,16
 669              		.cfi_def_cfa_offset 0
 670 02ec 67800000 		jr	ra
 671              		.cfi_endproc
 672              	.LFE42:
 674              		.align	2
 675              		.globl	_ZN14PeriodicThreadC2Em
 677              	_ZN14PeriodicThreadC2Em:
 678              	.LFB37:
  61:src/syscall_cpp.cpp **** 
 679              		.loc 2 61 1 is_stmt 1
 680              		.cfi_startproc
 681              	.LVL44:
 682 02f0 130101FE 		addi	sp,sp,-32
 683              		.cfi_def_cfa_offset 32
 684 02f4 233C1100 		sd	ra,24(sp)
 685 02f8 23388100 		sd	s0,16(sp)
 686 02fc 23349100 		sd	s1,8(sp)
 687 0300 23302101 		sd	s2,0(sp)
 688              		.cfi_offset 1, -8
 689              		.cfi_offset 8, -16
 690              		.cfi_offset 9, -24
 691              		.cfi_offset 18, -32
 692 0304 13040102 		addi	s0,sp,32
 693              		.cfi_def_cfa 8, 0
 694 0308 93040500 		mv	s1,a0
 695 030c 13890500 		mv	s2,a1
 696              	.LBB15:
  61:src/syscall_cpp.cpp **** 
 697              		.loc 2 61 104 is_stmt 0
 698 0310 13050001 		li	a0,16
 699              	.LVL45:
 700 0314 97000000 		call	_Znwm
 700      E7800000 
GAS LISTING /tmp/cckUmUVM.s 			page 16


 701              	.LVL46:
 702 031c 13060500 		mv	a2,a0
 703              	.LVL47:
 704              	.LBB16:
 705              	.LBB17:
  56:src/syscall_cpp.cpp ****         t = time;
 706              		.loc 2 56 9 is_stmt 1
  56:src/syscall_cpp.cpp ****         t = time;
 707              		.loc 2 56 13 is_stmt 0
 708 0320 23309500 		sd	s1,0(a0)
  57:src/syscall_cpp.cpp ****     }
 709              		.loc 2 57 9 is_stmt 1
  57:src/syscall_cpp.cpp ****     }
 710              		.loc 2 57 11 is_stmt 0
 711 0324 23342501 		sd	s2,8(a0)
 712              	.LVL48:
 713              	.LBE17:
 714              	.LBE16:
  61:src/syscall_cpp.cpp **** 
 715              		.loc 2 61 105
 716 0328 97050000 		lla	a1,_ZN14PeriodicThread15periodicWrapperEPv
 716      93850500 
 717 0330 13850400 		mv	a0,s1
 718 0334 97000000 		call	_ZN6ThreadC2EPFvPvES0_
 718      E7800000 
 719              	.LVL49:
 720 033c 97070000 		lla	a5,_ZTV14PeriodicThread+16
 720      93870700 
 721 0344 23B0F400 		sd	a5,0(s1)
 722              	.LBE15:
  63:src/syscall_cpp.cpp **** 
 723              		.loc 2 63 1
 724 0348 83308101 		ld	ra,24(sp)
 725              		.cfi_restore 1
 726 034c 03340101 		ld	s0,16(sp)
 727              		.cfi_restore 8
 728              		.cfi_def_cfa 2, 32
 729 0350 83348100 		ld	s1,8(sp)
 730              		.cfi_restore 9
 731              	.LVL50:
 732 0354 03390100 		ld	s2,0(sp)
 733              		.cfi_restore 18
 734              	.LVL51:
 735 0358 13010102 		addi	sp,sp,32
 736              		.cfi_def_cfa_offset 0
 737 035c 67800000 		jr	ra
 738              		.cfi_endproc
 739              	.LFE37:
 741              		.globl	_ZN14PeriodicThreadC1Em
 742              		.set	_ZN14PeriodicThreadC1Em,_ZN14PeriodicThreadC2Em
 743              		.align	2
 744              		.globl	_ZdlPv
 746              	_ZdlPv:
 747              	.LFB43:
  84:src/syscall_cpp.cpp **** 
  85:src/syscall_cpp.cpp **** void operator delete(void *p) {
 748              		.loc 2 85 31 is_stmt 1
GAS LISTING /tmp/cckUmUVM.s 			page 17


 749              		.cfi_startproc
 750              	.LVL52:
 751 0360 130101FF 		addi	sp,sp,-16
 752              		.cfi_def_cfa_offset 16
 753 0364 23341100 		sd	ra,8(sp)
 754 0368 23308100 		sd	s0,0(sp)
 755              		.cfi_offset 1, -8
 756              		.cfi_offset 8, -16
 757 036c 13040101 		addi	s0,sp,16
 758              		.cfi_def_cfa 8, 0
  86:src/syscall_cpp.cpp ****     mem_free(p);
 759              		.loc 2 86 5
 760              		.loc 2 86 13 is_stmt 0
 761 0370 97000000 		call	_Z8mem_freePv@plt
 761      E7800000 
 762              	.LVL53:
  87:src/syscall_cpp.cpp **** }
 763              		.loc 2 87 1
 764 0378 83308100 		ld	ra,8(sp)
 765              		.cfi_restore 1
 766 037c 03340100 		ld	s0,0(sp)
 767              		.cfi_restore 8
 768              		.cfi_def_cfa 2, 16
 769 0380 13010101 		addi	sp,sp,16
 770              		.cfi_def_cfa_offset 0
 771 0384 67800000 		jr	ra
 772              		.cfi_endproc
 773              	.LFE43:
 775              		.align	2
 776              		.globl	_ZN6ThreadD0Ev
 778              	_ZN6ThreadD0Ev:
 779              	.LFB16:
  10:src/syscall_cpp.cpp ****     delete myHandle;
 780              		.loc 2 10 1 is_stmt 1
 781              		.cfi_startproc
 782              	.LVL54:
 783 0388 130101FE 		addi	sp,sp,-32
 784              		.cfi_def_cfa_offset 32
 785 038c 233C1100 		sd	ra,24(sp)
 786 0390 23388100 		sd	s0,16(sp)
 787 0394 23349100 		sd	s1,8(sp)
 788              		.cfi_offset 1, -8
 789              		.cfi_offset 8, -16
 790              		.cfi_offset 9, -24
 791 0398 13040102 		addi	s0,sp,32
 792              		.cfi_def_cfa 8, 0
 793 039c 93040500 		mv	s1,a0
  12:src/syscall_cpp.cpp **** 
 794              		.loc 2 12 1 is_stmt 0
 795 03a0 97000000 		call	_ZN6ThreadD1Ev
 795      E7800000 
 796              	.LVL55:
 797 03a8 13850400 		mv	a0,s1
 798 03ac 97000000 		call	_ZdlPv
 798      E7800000 
 799              	.LVL56:
 800 03b4 83308101 		ld	ra,24(sp)
GAS LISTING /tmp/cckUmUVM.s 			page 18


 801              		.cfi_restore 1
 802 03b8 03340101 		ld	s0,16(sp)
 803              		.cfi_restore 8
 804              		.cfi_def_cfa 2, 32
 805 03bc 83348100 		ld	s1,8(sp)
 806              		.cfi_restore 9
 807              	.LVL57:
 808 03c0 13010102 		addi	sp,sp,32
 809              		.cfi_def_cfa_offset 0
 810 03c4 67800000 		jr	ra
 811              		.cfi_endproc
 812              	.LFE16:
 814              		.align	2
 815              		.globl	_ZN9SemaphoreD0Ev
 817              	_ZN9SemaphoreD0Ev:
 818              	.LFB30:
  39:src/syscall_cpp.cpp ****     sem_close(myHandle);
 819              		.loc 2 39 1 is_stmt 1
 820              		.cfi_startproc
 821              	.LVL58:
 822 03c8 130101FE 		addi	sp,sp,-32
 823              		.cfi_def_cfa_offset 32
 824 03cc 233C1100 		sd	ra,24(sp)
 825 03d0 23388100 		sd	s0,16(sp)
 826 03d4 23349100 		sd	s1,8(sp)
 827              		.cfi_offset 1, -8
 828              		.cfi_offset 8, -16
 829              		.cfi_offset 9, -24
 830 03d8 13040102 		addi	s0,sp,32
 831              		.cfi_def_cfa 8, 0
 832 03dc 93040500 		mv	s1,a0
  41:src/syscall_cpp.cpp **** 
 833              		.loc 2 41 1 is_stmt 0
 834 03e0 97000000 		call	_ZN9SemaphoreD1Ev
 834      E7800000 
 835              	.LVL59:
 836 03e8 13850400 		mv	a0,s1
 837 03ec 97000000 		call	_ZdlPv
 837      E7800000 
 838              	.LVL60:
 839 03f4 83308101 		ld	ra,24(sp)
 840              		.cfi_restore 1
 841 03f8 03340101 		ld	s0,16(sp)
 842              		.cfi_restore 8
 843              		.cfi_def_cfa 2, 32
 844 03fc 83348100 		ld	s1,8(sp)
 845              		.cfi_restore 9
 846              	.LVL61:
 847 0400 13010102 		addi	sp,sp,32
 848              		.cfi_def_cfa_offset 0
 849 0404 67800000 		jr	ra
 850              		.cfi_endproc
 851              	.LFE30:
 853              		.section	.text._ZN14PeriodicThreadD0Ev,"axG",@progbits,_ZN14PeriodicThreadD5Ev,comdat
 854              		.align	2
 855              		.weak	_ZN14PeriodicThreadD0Ev
 857              	_ZN14PeriodicThreadD0Ev:
GAS LISTING /tmp/cckUmUVM.s 			page 19


 858              	.LFB47:
  35:src/../h/syscall_cpp.hpp **** protected:
 859              		.loc 1 35 7 is_stmt 1
 860              		.cfi_startproc
 861              	.LVL62:
 862 0000 130101FE 		addi	sp,sp,-32
 863              		.cfi_def_cfa_offset 32
 864 0004 233C1100 		sd	ra,24(sp)
 865 0008 23388100 		sd	s0,16(sp)
 866 000c 23349100 		sd	s1,8(sp)
 867              		.cfi_offset 1, -8
 868              		.cfi_offset 8, -16
 869              		.cfi_offset 9, -24
 870 0010 13040102 		addi	s0,sp,32
 871              		.cfi_def_cfa 8, 0
 872 0014 93040500 		mv	s1,a0
 873              	.LVL63:
 874              	.LBB18:
 875              	.LBB19:
  35:src/../h/syscall_cpp.hpp **** protected:
 876              		.loc 1 35 7 is_stmt 0
 877 0018 97070000 		lla	a5,_ZTV14PeriodicThread+16
 877      93870700 
 878 0020 2330F500 		sd	a5,0(a0)
 879 0024 97000000 		call	_ZN6ThreadD2Ev
 879      E7800000 
 880              	.LVL64:
 881              	.LBE19:
 882              	.LBE18:
 883 002c 13850400 		mv	a0,s1
 884 0030 97000000 		call	_ZdlPv
 884      E7800000 
 885              	.LVL65:
 886 0038 83308101 		ld	ra,24(sp)
 887              		.cfi_restore 1
 888 003c 03340101 		ld	s0,16(sp)
 889              		.cfi_restore 8
 890              		.cfi_def_cfa 2, 32
 891 0040 83348100 		ld	s1,8(sp)
 892              		.cfi_restore 9
 893              	.LVL66:
 894 0044 13010102 		addi	sp,sp,32
 895              		.cfi_def_cfa_offset 0
 896 0048 67800000 		jr	ra
 897              		.cfi_endproc
 898              	.LFE47:
 900              		.weak	_ZTV14PeriodicThread
 901              		.section	.data.rel.ro.local._ZTV14PeriodicThread,"awG",@progbits,_ZTV14PeriodicThread,comdat
 902              		.align	3
 905              	_ZTV14PeriodicThread:
 906 0000 00000000 		.dword	0
 906      00000000 
 907 0008 00000000 		.dword	0
 907      00000000 
 908 0010 00000000 		.dword	_ZN14PeriodicThreadD1Ev
 908      00000000 
 909 0018 00000000 		.dword	_ZN14PeriodicThreadD0Ev
GAS LISTING /tmp/cckUmUVM.s 			page 20


 909      00000000 
 910 0020 00000000 		.dword	_ZN6Thread3runEv
 910      00000000 
 911 0028 00000000 		.dword	_ZN14PeriodicThread18periodicActivationEv
 911      00000000 
 912              		.weak	_ZTV6Thread
 913              		.section	.data.rel.ro.local._ZTV6Thread,"awG",@progbits,_ZTV6Thread,comdat
 914              		.align	3
 917              	_ZTV6Thread:
 918 0000 00000000 		.dword	0
 918      00000000 
 919 0008 00000000 		.dword	0
 919      00000000 
 920 0010 00000000 		.dword	_ZN6ThreadD1Ev
 920      00000000 
 921 0018 00000000 		.dword	_ZN6ThreadD0Ev
 921      00000000 
 922 0020 00000000 		.dword	_ZN6Thread3runEv
 922      00000000 
 923              		.weak	_ZTV9Semaphore
 924              		.section	.data.rel.ro.local._ZTV9Semaphore,"awG",@progbits,_ZTV9Semaphore,comdat
 925              		.align	3
 928              	_ZTV9Semaphore:
 929 0000 00000000 		.dword	0
 929      00000000 
 930 0008 00000000 		.dword	0
 930      00000000 
 931 0010 00000000 		.dword	_ZN9SemaphoreD1Ev
 931      00000000 
 932 0018 00000000 		.dword	_ZN9SemaphoreD0Ev
 932      00000000 
 933              		.text
 934              	.Letext0:
 935              		.file 3 "src/../h/../lib/hw.h"
 936              		.file 4 "src/../h/../h/ThreadK.hpp"
 937              		.file 5 "src/../h/syscall_c.h"
 4940              		.align	3
 4943              	DW.ref.__gxx_personality_v0:
 4944 0000 00000000 		.dword	__gxx_personality_v0
 4944      00000000 
 4945              		.ident	"GCC: (Ubuntu 9.4.0-1ubuntu1~20.04) 9.4.0"
 4946              		.section	.note.GNU-stack,"",@progbits
GAS LISTING /tmp/cckUmUVM.s 			page 21


DEFINED SYMBOLS
                            *ABS*:0000000000000000 syscall_cpp.cpp
     /tmp/cckUmUVM.s:10     .text._ZN6Thread3runEv:0000000000000000 _ZN6Thread3runEv
     /tmp/cckUmUVM.s:14     .text._ZN6Thread3runEv:0000000000000000 .L0 
     /tmp/cckUmUVM.s:16     .text._ZN6Thread3runEv:0000000000000000 .L0 
     /tmp/cckUmUVM.s:17     .text._ZN6Thread3runEv:0000000000000004 .L0 
     /tmp/cckUmUVM.s:19     .text._ZN6Thread3runEv:0000000000000008 .L0 
     /tmp/cckUmUVM.s:21     .text._ZN6Thread3runEv:000000000000000c .L0 
     /tmp/cckUmUVM.s:23     .text._ZN6Thread3runEv:000000000000000c .L0 
     /tmp/cckUmUVM.s:24     .text._ZN6Thread3runEv:0000000000000010 .L0 
     /tmp/cckUmUVM.s:25     .text._ZN6Thread3runEv:0000000000000010 .L0 
     /tmp/cckUmUVM.s:27     .text._ZN6Thread3runEv:0000000000000014 .L0 
     /tmp/cckUmUVM.s:29     .text._ZN6Thread3runEv:0000000000000018 .L0 
     /tmp/cckUmUVM.s:36     .text._ZN14PeriodicThread18periodicActivationEv:0000000000000000 _ZN14PeriodicThread18periodicActivationEv
     /tmp/cckUmUVM.s:39     .text._ZN14PeriodicThread18periodicActivationEv:0000000000000000 .L0 
     /tmp/cckUmUVM.s:41     .text._ZN14PeriodicThread18periodicActivationEv:0000000000000000 .L0 
     /tmp/cckUmUVM.s:42     .text._ZN14PeriodicThread18periodicActivationEv:0000000000000004 .L0 
     /tmp/cckUmUVM.s:44     .text._ZN14PeriodicThread18periodicActivationEv:0000000000000008 .L0 
     /tmp/cckUmUVM.s:46     .text._ZN14PeriodicThread18periodicActivationEv:000000000000000c .L0 
     /tmp/cckUmUVM.s:48     .text._ZN14PeriodicThread18periodicActivationEv:000000000000000c .L0 
     /tmp/cckUmUVM.s:49     .text._ZN14PeriodicThread18periodicActivationEv:0000000000000010 .L0 
     /tmp/cckUmUVM.s:50     .text._ZN14PeriodicThread18periodicActivationEv:0000000000000010 .L0 
     /tmp/cckUmUVM.s:52     .text._ZN14PeriodicThread18periodicActivationEv:0000000000000014 .L0 
     /tmp/cckUmUVM.s:54     .text._ZN14PeriodicThread18periodicActivationEv:0000000000000018 .L0 
     /tmp/cckUmUVM.s:61     .text:0000000000000000 _ZN6Thread13helperWrapperEPv
     /tmp/cckUmUVM.s:65     .text:0000000000000000 .L0 
     /tmp/cckUmUVM.s:67     .text:0000000000000000 .L0 
     /tmp/cckUmUVM.s:68     .text:0000000000000004 .L0 
     /tmp/cckUmUVM.s:71     .text:000000000000000c .L0 
     /tmp/cckUmUVM.s:72     .text:000000000000000c .L0 
     /tmp/cckUmUVM.s:74     .text:0000000000000010 .L0 
     /tmp/cckUmUVM.s:77     .text:0000000000000010 .L0 
     /tmp/cckUmUVM.s:78     .text:0000000000000010 .L0 
     /tmp/cckUmUVM.s:79     .text:0000000000000010 .L0 
     /tmp/cckUmUVM.s:82     .text:0000000000000018 .L0 
     /tmp/cckUmUVM.s:85     .text:000000000000001c .L0 
     /tmp/cckUmUVM.s:86     .text:0000000000000020 .L0 
     /tmp/cckUmUVM.s:88     .text:0000000000000024 .L0 
     /tmp/cckUmUVM.s:89     .text:0000000000000024 .L0 
     /tmp/cckUmUVM.s:91     .text:0000000000000028 .L0 
     /tmp/cckUmUVM.s:93     .text:000000000000002c .L0 
     /tmp/cckUmUVM.s:99     .text:000000000000002c _ZN6ThreadD2Ev
     /tmp/cckUmUVM.s:102    .text:000000000000002c .L0 
     /tmp/cckUmUVM.s:4943   .data.rel.local.DW.ref.__gxx_personality_v0:0000000000000000 DW.ref.__gxx_personality_v0
     /tmp/cckUmUVM.s:106    .text:000000000000002c .L0 
     /tmp/cckUmUVM.s:107    .text:0000000000000030 .L0 
     /tmp/cckUmUVM.s:111    .text:000000000000003c .L0 
     /tmp/cckUmUVM.s:112    .text:000000000000003c .L0 
     /tmp/cckUmUVM.s:113    .text:000000000000003c .L0 
     /tmp/cckUmUVM.s:115    .text:0000000000000040 .L0 
     /tmp/cckUmUVM.s:917    .data.rel.ro.local._ZTV6Thread:0000000000000000 _ZTV6Thread
     /tmp/cckUmUVM.s:118    .text:0000000000000040 .L0 
     /tmp/cckUmUVM.s:121    .text:000000000000004c .L0 
     /tmp/cckUmUVM.s:122    .text:000000000000004c .L0 
     /tmp/cckUmUVM.s:124    .text:0000000000000050 .L0 
     /tmp/cckUmUVM.s:126    .text:0000000000000054 .L0 
     /tmp/cckUmUVM.s:136    .text:000000000000006c .L0 
GAS LISTING /tmp/cckUmUVM.s 			page 22


     /tmp/cckUmUVM.s:137    .text:0000000000000070 .L0 
     /tmp/cckUmUVM.s:139    .text:0000000000000074 .L0 
     /tmp/cckUmUVM.s:140    .text:0000000000000074 .L0 
     /tmp/cckUmUVM.s:142    .text:0000000000000078 .L0 
     /tmp/cckUmUVM.s:144    .text:000000000000007c .L0 
     /tmp/cckUmUVM.s:146    .text:0000000000000080 .L0 
     /tmp/cckUmUVM.s:99     .text:000000000000002c _ZN6ThreadD1Ev
     /tmp/cckUmUVM.s:163    .text._ZN14PeriodicThreadD2Ev:0000000000000000 _ZN14PeriodicThreadD2Ev
     /tmp/cckUmUVM.s:166    .text._ZN14PeriodicThreadD2Ev:0000000000000000 .L0 
     /tmp/cckUmUVM.s:168    .text._ZN14PeriodicThreadD2Ev:0000000000000000 .L0 
     /tmp/cckUmUVM.s:169    .text._ZN14PeriodicThreadD2Ev:0000000000000004 .L0 
     /tmp/cckUmUVM.s:172    .text._ZN14PeriodicThreadD2Ev:000000000000000c .L0 
     /tmp/cckUmUVM.s:173    .text._ZN14PeriodicThreadD2Ev:000000000000000c .L0 
     /tmp/cckUmUVM.s:175    .text._ZN14PeriodicThreadD2Ev:0000000000000010 .L0 
     /tmp/cckUmUVM.s:905    .data.rel.ro.local._ZTV14PeriodicThread:0000000000000000 _ZTV14PeriodicThread
     /tmp/cckUmUVM.s:178    .text._ZN14PeriodicThreadD2Ev:0000000000000010 .L0 
     /tmp/cckUmUVM.s:184    .text._ZN14PeriodicThreadD2Ev:0000000000000028 .L0 
     /tmp/cckUmUVM.s:186    .text._ZN14PeriodicThreadD2Ev:000000000000002c .L0 
     /tmp/cckUmUVM.s:187    .text._ZN14PeriodicThreadD2Ev:000000000000002c .L0 
     /tmp/cckUmUVM.s:189    .text._ZN14PeriodicThreadD2Ev:0000000000000030 .L0 
     /tmp/cckUmUVM.s:191    .text._ZN14PeriodicThreadD2Ev:0000000000000034 .L0 
     /tmp/cckUmUVM.s:163    .text._ZN14PeriodicThreadD2Ev:0000000000000000 _ZN14PeriodicThreadD1Ev
     /tmp/cckUmUVM.s:200    .text:0000000000000080 _ZN9SemaphoreD2Ev
     /tmp/cckUmUVM.s:203    .text:0000000000000080 .L0 
     /tmp/cckUmUVM.s:207    .text:0000000000000080 .L0 
     /tmp/cckUmUVM.s:208    .text:0000000000000084 .L0 
     /tmp/cckUmUVM.s:211    .text:000000000000008c .L0 
     /tmp/cckUmUVM.s:212    .text:000000000000008c .L0 
     /tmp/cckUmUVM.s:214    .text:0000000000000090 .L0 
     /tmp/cckUmUVM.s:928    .data.rel.ro.local._ZTV9Semaphore:0000000000000000 _ZTV9Semaphore
     /tmp/cckUmUVM.s:217    .text:0000000000000090 .L0 
     /tmp/cckUmUVM.s:220    .text:000000000000009c .L0 
     /tmp/cckUmUVM.s:221    .text:000000000000009c .L0 
     /tmp/cckUmUVM.s:227    .text:00000000000000a8 .L0 
     /tmp/cckUmUVM.s:228    .text:00000000000000ac .L0 
     /tmp/cckUmUVM.s:230    .text:00000000000000b0 .L0 
     /tmp/cckUmUVM.s:231    .text:00000000000000b0 .L0 
     /tmp/cckUmUVM.s:233    .text:00000000000000b4 .L0 
     /tmp/cckUmUVM.s:235    .text:00000000000000b8 .L0 
     /tmp/cckUmUVM.s:200    .text:0000000000000080 _ZN9SemaphoreD1Ev
     /tmp/cckUmUVM.s:250    .text:00000000000000b8 _ZN6ThreadC2EPFvPvES0_
     /tmp/cckUmUVM.s:253    .text:00000000000000b8 .L0 
     /tmp/cckUmUVM.s:255    .text:00000000000000b8 .L0 
     /tmp/cckUmUVM.s:256    .text:00000000000000bc .L0 
     /tmp/cckUmUVM.s:259    .text:00000000000000c4 .L0 
     /tmp/cckUmUVM.s:260    .text:00000000000000c4 .L0 
     /tmp/cckUmUVM.s:262    .text:00000000000000c8 .L0 
     /tmp/cckUmUVM.s:265    .text:00000000000000c8 .L0 
     /tmp/cckUmUVM.s:268    .text:00000000000000d4 .L0 
     /tmp/cckUmUVM.s:269    .text:00000000000000d4 .L0 
     /tmp/cckUmUVM.s:275    .text:00000000000000e0 .L0 
     /tmp/cckUmUVM.s:276    .text:00000000000000e4 .L0 
     /tmp/cckUmUVM.s:278    .text:00000000000000e8 .L0 
     /tmp/cckUmUVM.s:279    .text:00000000000000e8 .L0 
     /tmp/cckUmUVM.s:281    .text:00000000000000ec .L0 
     /tmp/cckUmUVM.s:283    .text:00000000000000f0 .L0 
     /tmp/cckUmUVM.s:250    .text:00000000000000b8 _ZN6ThreadC1EPFvPvES0_
GAS LISTING /tmp/cckUmUVM.s 			page 23


     /tmp/cckUmUVM.s:291    .text:00000000000000f0 _ZN6Thread5startEv
     /tmp/cckUmUVM.s:294    .text:00000000000000f0 .L0 
     /tmp/cckUmUVM.s:296    .text:00000000000000f0 .L0 
     /tmp/cckUmUVM.s:297    .text:00000000000000f4 .L0 
     /tmp/cckUmUVM.s:300    .text:00000000000000fc .L0 
     /tmp/cckUmUVM.s:301    .text:00000000000000fc .L0 
     /tmp/cckUmUVM.s:303    .text:0000000000000100 .L0 
     /tmp/cckUmUVM.s:305    .text:0000000000000100 .L0 
     /tmp/cckUmUVM.s:306    .text:0000000000000100 .L0 
     /tmp/cckUmUVM.s:311    .text:000000000000010c .L0 
     /tmp/cckUmUVM.s:312    .text:0000000000000110 .L0 
     /tmp/cckUmUVM.s:314    .text:0000000000000114 .L0 
     /tmp/cckUmUVM.s:315    .text:0000000000000114 .L0 
     /tmp/cckUmUVM.s:317    .text:0000000000000118 .L0 
     /tmp/cckUmUVM.s:319    .text:000000000000011c .L0 
     /tmp/cckUmUVM.s:325    .text:000000000000011c _ZN6Thread8dispatchEv
     /tmp/cckUmUVM.s:328    .text:000000000000011c .L0 
     /tmp/cckUmUVM.s:329    .text:000000000000011c .L0 
     /tmp/cckUmUVM.s:330    .text:0000000000000120 .L0 
     /tmp/cckUmUVM.s:333    .text:0000000000000128 .L0 
     /tmp/cckUmUVM.s:334    .text:0000000000000128 .L0 
     /tmp/cckUmUVM.s:336    .text:000000000000012c .L0 
     /tmp/cckUmUVM.s:338    .text:000000000000012c .L0 
     /tmp/cckUmUVM.s:339    .text:000000000000012c .L0 
     /tmp/cckUmUVM.s:342    .text:0000000000000134 .L0 
     /tmp/cckUmUVM.s:343    .text:0000000000000138 .L0 
     /tmp/cckUmUVM.s:345    .text:000000000000013c .L0 
     /tmp/cckUmUVM.s:346    .text:000000000000013c .L0 
     /tmp/cckUmUVM.s:348    .text:0000000000000140 .L0 
     /tmp/cckUmUVM.s:350    .text:0000000000000144 .L0 
     /tmp/cckUmUVM.s:356    .text:0000000000000144 _ZN6Thread5sleepEm
     /tmp/cckUmUVM.s:359    .text:0000000000000144 .L0 
     /tmp/cckUmUVM.s:361    .text:0000000000000144 .L0 
     /tmp/cckUmUVM.s:362    .text:0000000000000148 .L0 
     /tmp/cckUmUVM.s:365    .text:0000000000000150 .L0 
     /tmp/cckUmUVM.s:366    .text:0000000000000150 .L0 
     /tmp/cckUmUVM.s:368    .text:0000000000000154 .L0 
     /tmp/cckUmUVM.s:370    .text:0000000000000154 .L0 
     /tmp/cckUmUVM.s:371    .text:0000000000000154 .L0 
     /tmp/cckUmUVM.s:374    .text:000000000000015c .L0 
     /tmp/cckUmUVM.s:375    .text:0000000000000160 .L0 
     /tmp/cckUmUVM.s:377    .text:0000000000000164 .L0 
     /tmp/cckUmUVM.s:378    .text:0000000000000164 .L0 
     /tmp/cckUmUVM.s:380    .text:0000000000000168 .L0 
     /tmp/cckUmUVM.s:382    .text:000000000000016c .L0 
     /tmp/cckUmUVM.s:388    .text:000000000000016c _ZN14PeriodicThread15periodicWrapperEPv
     /tmp/cckUmUVM.s:391    .text:000000000000016c .L0 
     /tmp/cckUmUVM.s:393    .text:000000000000016c .L0 
     /tmp/cckUmUVM.s:394    .text:0000000000000170 .L0 
     /tmp/cckUmUVM.s:398    .text:000000000000017c .L0 
     /tmp/cckUmUVM.s:399    .text:000000000000017c .L0 
     /tmp/cckUmUVM.s:400    .text:000000000000017c .L0 
     /tmp/cckUmUVM.s:402    .text:0000000000000180 .L0 
     /tmp/cckUmUVM.s:407    .text:0000000000000184 .L0 
     /tmp/cckUmUVM.s:408    .text:0000000000000184 .L0 
     /tmp/cckUmUVM.s:409    .text:0000000000000184 .L0 
     /tmp/cckUmUVM.s:410    .text:0000000000000184 .L0 
GAS LISTING /tmp/cckUmUVM.s 			page 24


     /tmp/cckUmUVM.s:412    .text:0000000000000188 .L0 
     /tmp/cckUmUVM.s:415    .text:0000000000000190 .L0 
     /tmp/cckUmUVM.s:418    .text:0000000000000194 .L0 
     /tmp/cckUmUVM.s:419    .text:0000000000000194 .L0 
     /tmp/cckUmUVM.s:423    .text:00000000000001a0 .L0 
     /tmp/cckUmUVM.s:424    .text:00000000000001a4 .L0 
     /tmp/cckUmUVM.s:430    .text:00000000000001a4 _ZN6ThreadC2Ev
     /tmp/cckUmUVM.s:433    .text:00000000000001a4 .L0 
     /tmp/cckUmUVM.s:435    .text:00000000000001a4 .L0 
     /tmp/cckUmUVM.s:436    .text:00000000000001a8 .L0 
     /tmp/cckUmUVM.s:439    .text:00000000000001b0 .L0 
     /tmp/cckUmUVM.s:440    .text:00000000000001b0 .L0 
     /tmp/cckUmUVM.s:442    .text:00000000000001b4 .L0 
     /tmp/cckUmUVM.s:445    .text:00000000000001b4 .L0 
     /tmp/cckUmUVM.s:448    .text:00000000000001c0 .L0 
     /tmp/cckUmUVM.s:449    .text:00000000000001c0 .L0 
     /tmp/cckUmUVM.s:457    .text:00000000000001d8 .L0 
     /tmp/cckUmUVM.s:458    .text:00000000000001dc .L0 
     /tmp/cckUmUVM.s:460    .text:00000000000001e0 .L0 
     /tmp/cckUmUVM.s:461    .text:00000000000001e0 .L0 
     /tmp/cckUmUVM.s:463    .text:00000000000001e4 .L0 
     /tmp/cckUmUVM.s:465    .text:00000000000001e8 .L0 
     /tmp/cckUmUVM.s:430    .text:00000000000001a4 _ZN6ThreadC1Ev
     /tmp/cckUmUVM.s:473    .text:00000000000001e8 _ZN9SemaphoreC2Ej
     /tmp/cckUmUVM.s:476    .text:00000000000001e8 .L0 
     /tmp/cckUmUVM.s:478    .text:00000000000001e8 .L0 
     /tmp/cckUmUVM.s:479    .text:00000000000001ec .L0 
     /tmp/cckUmUVM.s:482    .text:00000000000001f4 .L0 
     /tmp/cckUmUVM.s:483    .text:00000000000001f4 .L0 
     /tmp/cckUmUVM.s:485    .text:00000000000001f8 .L0 
     /tmp/cckUmUVM.s:488    .text:00000000000001f8 .L0 
     /tmp/cckUmUVM.s:491    .text:0000000000000204 .L0 
     /tmp/cckUmUVM.s:492    .text:0000000000000204 .L0 
     /tmp/cckUmUVM.s:498    .text:0000000000000210 .L0 
     /tmp/cckUmUVM.s:499    .text:0000000000000214 .L0 
     /tmp/cckUmUVM.s:501    .text:0000000000000218 .L0 
     /tmp/cckUmUVM.s:502    .text:0000000000000218 .L0 
     /tmp/cckUmUVM.s:504    .text:000000000000021c .L0 
     /tmp/cckUmUVM.s:506    .text:0000000000000220 .L0 
     /tmp/cckUmUVM.s:473    .text:00000000000001e8 _ZN9SemaphoreC1Ej
     /tmp/cckUmUVM.s:514    .text:0000000000000220 _ZN9Semaphore4waitEv
     /tmp/cckUmUVM.s:517    .text:0000000000000220 .L0 
     /tmp/cckUmUVM.s:519    .text:0000000000000220 .L0 
     /tmp/cckUmUVM.s:520    .text:0000000000000224 .L0 
     /tmp/cckUmUVM.s:523    .text:000000000000022c .L0 
     /tmp/cckUmUVM.s:524    .text:000000000000022c .L0 
     /tmp/cckUmUVM.s:526    .text:0000000000000230 .L0 
     /tmp/cckUmUVM.s:528    .text:0000000000000230 .L0 
     /tmp/cckUmUVM.s:529    .text:0000000000000230 .L0 
     /tmp/cckUmUVM.s:534    .text:000000000000023c .L0 
     /tmp/cckUmUVM.s:535    .text:0000000000000240 .L0 
     /tmp/cckUmUVM.s:537    .text:0000000000000244 .L0 
     /tmp/cckUmUVM.s:538    .text:0000000000000244 .L0 
     /tmp/cckUmUVM.s:540    .text:0000000000000248 .L0 
     /tmp/cckUmUVM.s:542    .text:000000000000024c .L0 
     /tmp/cckUmUVM.s:548    .text:000000000000024c _ZN9Semaphore6signalEv
     /tmp/cckUmUVM.s:551    .text:000000000000024c .L0 
GAS LISTING /tmp/cckUmUVM.s 			page 25


     /tmp/cckUmUVM.s:553    .text:000000000000024c .L0 
     /tmp/cckUmUVM.s:554    .text:0000000000000250 .L0 
     /tmp/cckUmUVM.s:557    .text:0000000000000258 .L0 
     /tmp/cckUmUVM.s:558    .text:0000000000000258 .L0 
     /tmp/cckUmUVM.s:560    .text:000000000000025c .L0 
     /tmp/cckUmUVM.s:562    .text:000000000000025c .L0 
     /tmp/cckUmUVM.s:563    .text:000000000000025c .L0 
     /tmp/cckUmUVM.s:568    .text:0000000000000268 .L0 
     /tmp/cckUmUVM.s:569    .text:000000000000026c .L0 
     /tmp/cckUmUVM.s:571    .text:0000000000000270 .L0 
     /tmp/cckUmUVM.s:572    .text:0000000000000270 .L0 
     /tmp/cckUmUVM.s:574    .text:0000000000000274 .L0 
     /tmp/cckUmUVM.s:576    .text:0000000000000278 .L0 
     /tmp/cckUmUVM.s:582    .text:0000000000000278 _ZN7Console4getcEv
     /tmp/cckUmUVM.s:585    .text:0000000000000278 .L0 
     /tmp/cckUmUVM.s:586    .text:0000000000000278 .L0 
     /tmp/cckUmUVM.s:587    .text:000000000000027c .L0 
     /tmp/cckUmUVM.s:590    .text:0000000000000284 .L0 
     /tmp/cckUmUVM.s:591    .text:0000000000000284 .L0 
     /tmp/cckUmUVM.s:593    .text:0000000000000288 .L0 
     /tmp/cckUmUVM.s:595    .text:0000000000000288 .L0 
     /tmp/cckUmUVM.s:596    .text:0000000000000288 .L0 
     /tmp/cckUmUVM.s:599    .text:0000000000000290 .L0 
     /tmp/cckUmUVM.s:600    .text:0000000000000294 .L0 
     /tmp/cckUmUVM.s:602    .text:0000000000000298 .L0 
     /tmp/cckUmUVM.s:603    .text:0000000000000298 .L0 
     /tmp/cckUmUVM.s:605    .text:000000000000029c .L0 
     /tmp/cckUmUVM.s:607    .text:00000000000002a0 .L0 
     /tmp/cckUmUVM.s:613    .text:00000000000002a0 _ZN7Console4putcEc
     /tmp/cckUmUVM.s:616    .text:00000000000002a0 .L0 
     /tmp/cckUmUVM.s:618    .text:00000000000002a0 .L0 
     /tmp/cckUmUVM.s:619    .text:00000000000002a4 .L0 
     /tmp/cckUmUVM.s:622    .text:00000000000002ac .L0 
     /tmp/cckUmUVM.s:623    .text:00000000000002ac .L0 
     /tmp/cckUmUVM.s:625    .text:00000000000002b0 .L0 
     /tmp/cckUmUVM.s:627    .text:00000000000002b0 .L0 
     /tmp/cckUmUVM.s:628    .text:00000000000002b0 .L0 
     /tmp/cckUmUVM.s:631    .text:00000000000002b8 .L0 
     /tmp/cckUmUVM.s:632    .text:00000000000002bc .L0 
     /tmp/cckUmUVM.s:634    .text:00000000000002c0 .L0 
     /tmp/cckUmUVM.s:635    .text:00000000000002c0 .L0 
     /tmp/cckUmUVM.s:637    .text:00000000000002c4 .L0 
     /tmp/cckUmUVM.s:639    .text:00000000000002c8 .L0 
     /tmp/cckUmUVM.s:645    .text:00000000000002c8 _Znwm
     /tmp/cckUmUVM.s:648    .text:00000000000002c8 .L0 
     /tmp/cckUmUVM.s:650    .text:00000000000002c8 .L0 
     /tmp/cckUmUVM.s:651    .text:00000000000002cc .L0 
     /tmp/cckUmUVM.s:654    .text:00000000000002d4 .L0 
     /tmp/cckUmUVM.s:655    .text:00000000000002d4 .L0 
     /tmp/cckUmUVM.s:657    .text:00000000000002d8 .L0 
     /tmp/cckUmUVM.s:659    .text:00000000000002d8 .L0 
     /tmp/cckUmUVM.s:660    .text:00000000000002d8 .L0 
     /tmp/cckUmUVM.s:663    .text:00000000000002e0 .L0 
     /tmp/cckUmUVM.s:664    .text:00000000000002e4 .L0 
     /tmp/cckUmUVM.s:666    .text:00000000000002e8 .L0 
     /tmp/cckUmUVM.s:667    .text:00000000000002e8 .L0 
     /tmp/cckUmUVM.s:669    .text:00000000000002ec .L0 
GAS LISTING /tmp/cckUmUVM.s 			page 26


     /tmp/cckUmUVM.s:671    .text:00000000000002f0 .L0 
     /tmp/cckUmUVM.s:677    .text:00000000000002f0 _ZN14PeriodicThreadC2Em
     /tmp/cckUmUVM.s:680    .text:00000000000002f0 .L0 
     /tmp/cckUmUVM.s:682    .text:00000000000002f0 .L0 
     /tmp/cckUmUVM.s:683    .text:00000000000002f4 .L0 
     /tmp/cckUmUVM.s:688    .text:0000000000000304 .L0 
     /tmp/cckUmUVM.s:689    .text:0000000000000304 .L0 
     /tmp/cckUmUVM.s:690    .text:0000000000000304 .L0 
     /tmp/cckUmUVM.s:691    .text:0000000000000304 .L0 
     /tmp/cckUmUVM.s:693    .text:0000000000000308 .L0 
     /tmp/cckUmUVM.s:698    .text:0000000000000310 .L0 
     /tmp/cckUmUVM.s:707    .text:0000000000000320 .L0 
     /tmp/cckUmUVM.s:708    .text:0000000000000320 .L0 
     /tmp/cckUmUVM.s:710    .text:0000000000000324 .L0 
     /tmp/cckUmUVM.s:711    .text:0000000000000324 .L0 
     /tmp/cckUmUVM.s:716    .text:0000000000000328 .L0 
     /tmp/cckUmUVM.s:724    .text:0000000000000348 .L0 
     /tmp/cckUmUVM.s:725    .text:000000000000034c .L0 
     /tmp/cckUmUVM.s:727    .text:0000000000000350 .L0 
     /tmp/cckUmUVM.s:728    .text:0000000000000350 .L0 
     /tmp/cckUmUVM.s:730    .text:0000000000000354 .L0 
     /tmp/cckUmUVM.s:733    .text:0000000000000358 .L0 
     /tmp/cckUmUVM.s:736    .text:000000000000035c .L0 
     /tmp/cckUmUVM.s:738    .text:0000000000000360 .L0 
     /tmp/cckUmUVM.s:677    .text:00000000000002f0 _ZN14PeriodicThreadC1Em
     /tmp/cckUmUVM.s:746    .text:0000000000000360 _ZdlPv
     /tmp/cckUmUVM.s:749    .text:0000000000000360 .L0 
     /tmp/cckUmUVM.s:751    .text:0000000000000360 .L0 
     /tmp/cckUmUVM.s:752    .text:0000000000000364 .L0 
     /tmp/cckUmUVM.s:755    .text:000000000000036c .L0 
     /tmp/cckUmUVM.s:756    .text:000000000000036c .L0 
     /tmp/cckUmUVM.s:758    .text:0000000000000370 .L0 
     /tmp/cckUmUVM.s:760    .text:0000000000000370 .L0 
     /tmp/cckUmUVM.s:761    .text:0000000000000370 .L0 
     /tmp/cckUmUVM.s:764    .text:0000000000000378 .L0 
     /tmp/cckUmUVM.s:765    .text:000000000000037c .L0 
     /tmp/cckUmUVM.s:767    .text:0000000000000380 .L0 
     /tmp/cckUmUVM.s:768    .text:0000000000000380 .L0 
     /tmp/cckUmUVM.s:770    .text:0000000000000384 .L0 
     /tmp/cckUmUVM.s:772    .text:0000000000000388 .L0 
     /tmp/cckUmUVM.s:778    .text:0000000000000388 _ZN6ThreadD0Ev
     /tmp/cckUmUVM.s:781    .text:0000000000000388 .L0 
     /tmp/cckUmUVM.s:783    .text:0000000000000388 .L0 
     /tmp/cckUmUVM.s:784    .text:000000000000038c .L0 
     /tmp/cckUmUVM.s:788    .text:0000000000000398 .L0 
     /tmp/cckUmUVM.s:789    .text:0000000000000398 .L0 
     /tmp/cckUmUVM.s:790    .text:0000000000000398 .L0 
     /tmp/cckUmUVM.s:792    .text:000000000000039c .L0 
     /tmp/cckUmUVM.s:795    .text:00000000000003a0 .L0 
     /tmp/cckUmUVM.s:801    .text:00000000000003b8 .L0 
     /tmp/cckUmUVM.s:803    .text:00000000000003bc .L0 
     /tmp/cckUmUVM.s:804    .text:00000000000003bc .L0 
     /tmp/cckUmUVM.s:806    .text:00000000000003c0 .L0 
     /tmp/cckUmUVM.s:809    .text:00000000000003c4 .L0 
     /tmp/cckUmUVM.s:811    .text:00000000000003c8 .L0 
     /tmp/cckUmUVM.s:817    .text:00000000000003c8 _ZN9SemaphoreD0Ev
     /tmp/cckUmUVM.s:820    .text:00000000000003c8 .L0 
GAS LISTING /tmp/cckUmUVM.s 			page 27


     /tmp/cckUmUVM.s:822    .text:00000000000003c8 .L0 
     /tmp/cckUmUVM.s:823    .text:00000000000003cc .L0 
     /tmp/cckUmUVM.s:827    .text:00000000000003d8 .L0 
     /tmp/cckUmUVM.s:828    .text:00000000000003d8 .L0 
     /tmp/cckUmUVM.s:829    .text:00000000000003d8 .L0 
     /tmp/cckUmUVM.s:831    .text:00000000000003dc .L0 
     /tmp/cckUmUVM.s:834    .text:00000000000003e0 .L0 
     /tmp/cckUmUVM.s:840    .text:00000000000003f8 .L0 
     /tmp/cckUmUVM.s:842    .text:00000000000003fc .L0 
     /tmp/cckUmUVM.s:843    .text:00000000000003fc .L0 
     /tmp/cckUmUVM.s:845    .text:0000000000000400 .L0 
     /tmp/cckUmUVM.s:848    .text:0000000000000404 .L0 
     /tmp/cckUmUVM.s:850    .text:0000000000000408 .L0 
     /tmp/cckUmUVM.s:857    .text._ZN14PeriodicThreadD0Ev:0000000000000000 _ZN14PeriodicThreadD0Ev
     /tmp/cckUmUVM.s:860    .text._ZN14PeriodicThreadD0Ev:0000000000000000 .L0 
     /tmp/cckUmUVM.s:862    .text._ZN14PeriodicThreadD0Ev:0000000000000000 .L0 
     /tmp/cckUmUVM.s:863    .text._ZN14PeriodicThreadD0Ev:0000000000000004 .L0 
     /tmp/cckUmUVM.s:867    .text._ZN14PeriodicThreadD0Ev:0000000000000010 .L0 
     /tmp/cckUmUVM.s:868    .text._ZN14PeriodicThreadD0Ev:0000000000000010 .L0 
     /tmp/cckUmUVM.s:869    .text._ZN14PeriodicThreadD0Ev:0000000000000010 .L0 
     /tmp/cckUmUVM.s:871    .text._ZN14PeriodicThreadD0Ev:0000000000000014 .L0 
     /tmp/cckUmUVM.s:877    .text._ZN14PeriodicThreadD0Ev:0000000000000018 .L0 
     /tmp/cckUmUVM.s:887    .text._ZN14PeriodicThreadD0Ev:000000000000003c .L0 
     /tmp/cckUmUVM.s:889    .text._ZN14PeriodicThreadD0Ev:0000000000000040 .L0 
     /tmp/cckUmUVM.s:890    .text._ZN14PeriodicThreadD0Ev:0000000000000040 .L0 
     /tmp/cckUmUVM.s:892    .text._ZN14PeriodicThreadD0Ev:0000000000000044 .L0 
     /tmp/cckUmUVM.s:895    .text._ZN14PeriodicThreadD0Ev:0000000000000048 .L0 
     /tmp/cckUmUVM.s:897    .text._ZN14PeriodicThreadD0Ev:000000000000004c .L0 
     /tmp/cckUmUVM.s:32     .text._ZN6Thread3runEv:0000000000000018 .L0 
     /tmp/cckUmUVM.s:57     .text._ZN14PeriodicThread18periodicActivationEv:0000000000000018 .L0 
     /tmp/cckUmUVM.s:938    .text:0000000000000408 .L0 
     /tmp/cckUmUVM.s:196    .text._ZN14PeriodicThreadD2Ev:0000000000000034 .L0 
     /tmp/cckUmUVM.s:901    .text._ZN14PeriodicThreadD0Ev:000000000000004c .L0 
     /tmp/cckUmUVM.s:118    .text:0000000000000040 .L0 
     /tmp/cckUmUVM.s:217    .text:0000000000000090 .L0 
     /tmp/cckUmUVM.s:265    .text:00000000000000c8 .L0 
     /tmp/cckUmUVM.s:445    .text:00000000000001b4 .L0 
     /tmp/cckUmUVM.s:450    .text:00000000000001c4 .L0 
     /tmp/cckUmUVM.s:488    .text:00000000000001f8 .L0 
     /tmp/cckUmUVM.s:716    .text:0000000000000328 .L0 
     /tmp/cckUmUVM.s:720    .text:000000000000033c .L0 
     /tmp/cckUmUVM.s:133    .text:000000000000006c .L7
     /tmp/cckUmUVM.s:406    .text:0000000000000184 .L23
     /tmp/cckUmUVM.s:178    .text._ZN14PeriodicThreadD2Ev:0000000000000010 .L0 
     /tmp/cckUmUVM.s:877    .text._ZN14PeriodicThreadD0Ev:0000000000000018 .L0 
     /tmp/cckUmUVM.s:2859   .debug_abbrev:0000000000000000 .Ldebug_abbrev0
     /tmp/cckUmUVM.s:4881   .debug_str:0000000000000917 .LASF167
     /tmp/cckUmUVM.s:4727   .debug_str:0000000000000469 .LASF168
     /tmp/cckUmUVM.s:4821   .debug_str:0000000000000752 .LASF169
     /tmp/cckUmUVM.s:4565   .debug_ranges:0000000000000000 .Ldebug_ranges0
     /tmp/cckUmUVM.s:4579   .debug_line:0000000000000000 .Ldebug_line0
     /tmp/cckUmUVM.s:4715   .debug_str:0000000000000404 .LASF0
     /tmp/cckUmUVM.s:4747   .debug_str:0000000000000520 .LASF1
     /tmp/cckUmUVM.s:4823   .debug_str:0000000000000767 .LASF2
     /tmp/cckUmUVM.s:4829   .debug_str:000000000000078e .LASF4
     /tmp/cckUmUVM.s:4729   .debug_str:000000000000047d .LASF3
     /tmp/cckUmUVM.s:4595   .debug_str:0000000000000073 .LASF5
GAS LISTING /tmp/cckUmUVM.s 			page 28


     /tmp/cckUmUVM.s:4805   .debug_str:00000000000006e4 .LASF6
     /tmp/cckUmUVM.s:4795   .debug_str:00000000000006a1 .LASF7
     /tmp/cckUmUVM.s:4739   .debug_str:00000000000004d5 .LASF8
     /tmp/cckUmUVM.s:4691   .debug_str:0000000000000350 .LASF9
     /tmp/cckUmUVM.s:4701   .debug_str:00000000000003b2 .LASF10
     /tmp/cckUmUVM.s:4627   .debug_str:000000000000014d .LASF11
     /tmp/cckUmUVM.s:4687   .debug_str:000000000000033c .LASF12
     /tmp/cckUmUVM.s:4643   .debug_str:00000000000001e1 .LASF13
     /tmp/cckUmUVM.s:4625   .debug_str:000000000000013d .LASF14
     /tmp/cckUmUVM.s:4857   .debug_str:000000000000088f .LASF15
     /tmp/cckUmUVM.s:4671   .debug_str:00000000000002a0 .LASF16
     /tmp/cckUmUVM.s:4849   .debug_str:0000000000000848 .LASF17
     /tmp/cckUmUVM.s:4783   .debug_str:0000000000000645 .LASF46
     /tmp/cckUmUVM.s:4865   .debug_str:00000000000008b4 .LASF88
     /tmp/cckUmUVM.s:4909   .debug_str:0000000000000abf .LASF18
     /tmp/cckUmUVM.s:4673   .debug_str:00000000000002b6 .LASF20
     /tmp/cckUmUVM.s:4855   .debug_str:0000000000000882 .LASF19
     /tmp/cckUmUVM.s:4843   .debug_str:00000000000007fe .LASF21
     /tmp/cckUmUVM.s:4787   .debug_str:0000000000000654 .LASF170
     /tmp/cckUmUVM.s:4867   .debug_str:00000000000008bc .LASF24
     /tmp/cckUmUVM.s:4761   .debug_str:000000000000059a .LASF26
     /tmp/cckUmUVM.s:4615   .debug_str:00000000000000f2 .LASF22
     /tmp/cckUmUVM.s:4757   .debug_str:0000000000000572 .LASF23
     /tmp/cckUmUVM.s:4753   .debug_str:0000000000000553 .LASF25
     /tmp/cckUmUVM.s:4661   .debug_str:000000000000025a .LASF27
     /tmp/cckUmUVM.s:4907   .debug_str:0000000000000ab4 .LASF38
     /tmp/cckUmUVM.s:4749   .debug_str:0000000000000533 .LASF40
     /tmp/cckUmUVM.s:4607   .debug_str:00000000000000c7 .LASF28
     /tmp/cckUmUVM.s:4735   .debug_str:00000000000004a9 .LASF30
     /tmp/cckUmUVM.s:4751   .debug_str:000000000000054d .LASF29
     /tmp/cckUmUVM.s:4841   .debug_str:00000000000007ea .LASF31
     /tmp/cckUmUVM.s:4875   .debug_str:00000000000008f5 .LASF32
     /tmp/cckUmUVM.s:4905   .debug_str:0000000000000aa1 .LASF33
     /tmp/cckUmUVM.s:4635   .debug_str:0000000000000196 .LASF34
     /tmp/cckUmUVM.s:4693   .debug_str:0000000000000360 .LASF35
     /tmp/cckUmUVM.s:4879   .debug_str:000000000000090f .LASF171
     /tmp/cckUmUVM.s:4923   .debug_str:0000000000000b1d .LASF36
     /tmp/cckUmUVM.s:4773   .debug_str:00000000000005e7 .LASF37
     /tmp/cckUmUVM.s:4587   .debug_str:0000000000000037 .LASF39
     /tmp/cckUmUVM.s:4659   .debug_str:0000000000000249 .LASF41
     /tmp/cckUmUVM.s:4623   .debug_str:000000000000012d .LASF42
     /tmp/cckUmUVM.s:4765   .debug_str:00000000000005ba .LASF43
     /tmp/cckUmUVM.s:4847   .debug_str:0000000000000835 .LASF44
     /tmp/cckUmUVM.s:4745   .debug_str:000000000000050f .LASF45
     /tmp/cckUmUVM.s:4633   .debug_str:0000000000000183 .LASF47
     /tmp/cckUmUVM.s:4827   .debug_str:0000000000000784 .LASF101
     /tmp/cckUmUVM.s:4925   .debug_str:0000000000000b2a .LASF103
     /tmp/cckUmUVM.s:4801   .debug_str:00000000000006c6 .LASF48
     /tmp/cckUmUVM.s:4677   .debug_str:00000000000002ef .LASF49
     /tmp/cckUmUVM.s:4699   .debug_str:0000000000000395 .LASF50
     /tmp/cckUmUVM.s:4585   .debug_str:0000000000000032 .LASF51
     /tmp/cckUmUVM.s:4891   .debug_str:0000000000000a19 .LASF52
     /tmp/cckUmUVM.s:4863   .debug_str:00000000000008ab .LASF53
     /tmp/cckUmUVM.s:4663   .debug_str:0000000000000277 .LASF58
     /tmp/cckUmUVM.s:4869   .debug_str:00000000000008c7 .LASF60
     /tmp/cckUmUVM.s:4653   .debug_str:000000000000021c .LASF83
     /tmp/cckUmUVM.s:4717   .debug_str:0000000000000411 .LASF85
GAS LISTING /tmp/cckUmUVM.s 			page 29


     /tmp/cckUmUVM.s:4917   .debug_str:0000000000000afc .LASF54
     /tmp/cckUmUVM.s:4839   .debug_str:00000000000007df .LASF55
     /tmp/cckUmUVM.s:4887   .debug_str:0000000000000a05 .LASF56
     /tmp/cckUmUVM.s:4791   .debug_str:000000000000066f .LASF57
     /tmp/cckUmUVM.s:4835   .debug_str:00000000000007bc .LASF67
     /tmp/cckUmUVM.s:4621   .debug_str:000000000000011f .LASF59
     /tmp/cckUmUVM.s:4911   .debug_str:0000000000000ac8 .LASF61
     /tmp/cckUmUVM.s:4657   .debug_str:000000000000023d .LASF62
     /tmp/cckUmUVM.s:4779   .debug_str:000000000000062b .LASF63
     /tmp/cckUmUVM.s:4741   .debug_str:00000000000004e8 .LASF64
     /tmp/cckUmUVM.s:4649   .debug_str:000000000000020f .LASF65
     /tmp/cckUmUVM.s:4851   .debug_str:000000000000085e .LASF66
     /tmp/cckUmUVM.s:4697   .debug_str:000000000000038b .LASF68
     /tmp/cckUmUVM.s:4889   .debug_str:0000000000000a0f .LASF69
     /tmp/cckUmUVM.s:4619   .debug_str:0000000000000111 .LASF70
     /tmp/cckUmUVM.s:4733   .debug_str:000000000000049c .LASF71
     /tmp/cckUmUVM.s:4583   .debug_str:000000000000002a .LASF72
     /tmp/cckUmUVM.s:4679   .debug_str:000000000000030c .LASF73
     /tmp/cckUmUVM.s:4845   .debug_str:0000000000000826 .LASF74
     /tmp/cckUmUVM.s:4731   .debug_str:000000000000048f .LASF75
     /tmp/cckUmUVM.s:4759   .debug_str:000000000000058d .LASF76
     /tmp/cckUmUVM.s:4703   .debug_str:00000000000003c0 .LASF77
     /tmp/cckUmUVM.s:4763   .debug_str:00000000000005b5 .LASF78
     /tmp/cckUmUVM.s:4833   .debug_str:00000000000007b1 .LASF79
     /tmp/cckUmUVM.s:4915   .debug_str:0000000000000af6 .LASF80
     /tmp/cckUmUVM.s:4929   .debug_str:0000000000000b58 .LASF81
     /tmp/cckUmUVM.s:4767   .debug_str:00000000000005ca .LASF82
     /tmp/cckUmUVM.s:4719   .debug_str:000000000000043d .LASF150
     /tmp/cckUmUVM.s:4655   .debug_str:000000000000022a .LASF172
     /tmp/cckUmUVM.s:4769   .debug_str:00000000000005d2 .LASF84
     /tmp/cckUmUVM.s:4667   .debug_str:0000000000000285 .LASF86
     /tmp/cckUmUVM.s:4871   .debug_str:00000000000008de .LASF87
     /tmp/cckUmUVM.s:4725   .debug_str:000000000000045a .LASF89
     /tmp/cckUmUVM.s:4895   .debug_str:0000000000000a3b .LASF90
     /tmp/cckUmUVM.s:4591   .debug_str:000000000000005a .LASF91
     /tmp/cckUmUVM.s:4893   .debug_str:0000000000000a21 .LASF92
     /tmp/cckUmUVM.s:4897   .debug_str:0000000000000a64 .LASF93
     /tmp/cckUmUVM.s:4737   .debug_str:00000000000004bd .LASF94
     /tmp/cckUmUVM.s:4617   .debug_str:00000000000000fe .LASF123
     /tmp/cckUmUVM.s:4581   .debug_str:0000000000000000 .LASF173
     /tmp/cckUmUVM.s:4771   .debug_str:00000000000005d7 .LASF95
     /tmp/cckUmUVM.s:4793   .debug_str:0000000000000679 .LASF96
     /tmp/cckUmUVM.s:4781   .debug_str:0000000000000635 .LASF97
     /tmp/cckUmUVM.s:4695   .debug_str:0000000000000373 .LASF174
     /tmp/cckUmUVM.s:4899   .debug_str:0000000000000a7f .LASF98
     /tmp/cckUmUVM.s:4877   .debug_str:00000000000008fa .LASF99
     /tmp/cckUmUVM.s:4921   .debug_str:0000000000000b0d .LASF112
     /tmp/cckUmUVM.s:4873   .debug_str:00000000000008e3 .LASF100
     /tmp/cckUmUVM.s:4809   .debug_str:00000000000006fa .LASF102
     /tmp/cckUmUVM.s:4837   .debug_str:00000000000007cd .LASF104
     /tmp/cckUmUVM.s:4665   .debug_str:0000000000000280 .LASF105
     /tmp/cckUmUVM.s:4631   .debug_str:000000000000016e .LASF106
     /tmp/cckUmUVM.s:4861   .debug_str:00000000000008a4 .LASF107
     /tmp/cckUmUVM.s:4597   .debug_str:000000000000007a .LASF108
     /tmp/cckUmUVM.s:4721   .debug_str:0000000000000442 .LASF109
     /tmp/cckUmUVM.s:4713   .debug_str:00000000000003f4 .LASF175
     /tmp/cckUmUVM.s:4709   .debug_str:00000000000003e4 .LASF110
GAS LISTING /tmp/cckUmUVM.s 			page 30


     /tmp/cckUmUVM.s:4637   .debug_str:000000000000019b .LASF111
     /tmp/cckUmUVM.s:4817   .debug_str:000000000000072d .LASF113
     /tmp/cckUmUVM.s:4933   .debug_str:0000000000000b6a .LASF114
     /tmp/cckUmUVM.s:4669   .debug_str:0000000000000298 .LASF115
     /tmp/cckUmUVM.s:4683   .debug_str:0000000000000327 .LASF116
     /tmp/cckUmUVM.s:4919   .debug_str:0000000000000b07 .LASF117
     /tmp/cckUmUVM.s:4589   .debug_str:0000000000000047 .LASF118
     /tmp/cckUmUVM.s:4789   .debug_str:0000000000000659 .LASF119
     /tmp/cckUmUVM.s:4605   .debug_str:00000000000000c1 .LASF120
     /tmp/cckUmUVM.s:4883   .debug_str:00000000000009db .LASF121
     /tmp/cckUmUVM.s:4723   .debug_str:000000000000044b .LASF122
     /tmp/cckUmUVM.s:4913   .debug_str:0000000000000ae5 .LASF176
     /tmp/cckUmUVM.s:4681   .debug_str:0000000000000319 .LASF124
     /tmp/cckUmUVM.s:4743   .debug_str:00000000000004f2 .LASF125
     /tmp/cckUmUVM.s:4689   .debug_str:000000000000034b .LASF126
     /tmp/cckUmUVM.s:4593   .debug_str:0000000000000069 .LASF127
     /tmp/cckUmUVM.s:4935   .debug_str:0000000000000b81 .LASF128
     /tmp/cckUmUVM.s:858    .text._ZN14PeriodicThreadD0Ev:0000000000000000 .LFB47
     /tmp/cckUmUVM.s:898    .text._ZN14PeriodicThreadD0Ev:000000000000004c .LFE47
     /tmp/cckUmUVM.s:4143   .debug_loc:0000000000000000 .LLST26
     /tmp/cckUmUVM.s:874    .text._ZN14PeriodicThreadD0Ev:0000000000000018 .LBB18
     /tmp/cckUmUVM.s:882    .text._ZN14PeriodicThreadD0Ev:000000000000002c .LBE18
     /tmp/cckUmUVM.s:4161   .debug_loc:000000000000004c .LLST27
     /tmp/cckUmUVM.s:880    .text._ZN14PeriodicThreadD0Ev:000000000000002c .LVL64
     /tmp/cckUmUVM.s:885    .text._ZN14PeriodicThreadD0Ev:0000000000000038 .LVL65
     /tmp/cckUmUVM.s:4819   .debug_str:000000000000073a .LASF129
     /tmp/cckUmUVM.s:164    .text._ZN14PeriodicThreadD2Ev:0000000000000000 .LFB45
     /tmp/cckUmUVM.s:192    .text._ZN14PeriodicThreadD2Ev:0000000000000034 .LFE45
     /tmp/cckUmUVM.s:4172   .debug_loc:0000000000000082 .LLST3
     /tmp/cckUmUVM.s:181    .text._ZN14PeriodicThreadD2Ev:0000000000000024 .LVL10
     /tmp/cckUmUVM.s:4785   .debug_str:000000000000064d .LASF130
     /tmp/cckUmUVM.s:747    .text:0000000000000360 .LFB43
     /tmp/cckUmUVM.s:773    .text:0000000000000388 .LFE43
     /tmp/cckUmUVM.s:4186   .debug_loc:00000000000000bb .LLST23
     /tmp/cckUmUVM.s:762    .text:0000000000000378 .LVL53
     /tmp/cckUmUVM.s:4685   .debug_str:0000000000000336 .LASF131
     /tmp/cckUmUVM.s:646    .text:00000000000002c8 .LFB42
     /tmp/cckUmUVM.s:672    .text:00000000000002f0 .LFE42
     /tmp/cckUmUVM.s:4651   .debug_str:0000000000000217 .LASF132
     /tmp/cckUmUVM.s:4200   .debug_loc:00000000000000f4 .LLST17
     /tmp/cckUmUVM.s:661    .text:00000000000002e0 .LVL43
     /tmp/cckUmUVM.s:614    .text:00000000000002a0 .LFB41
     /tmp/cckUmUVM.s:640    .text:00000000000002c8 .LFE41
     /tmp/cckUmUVM.s:4214   .debug_loc:000000000000012d .LLST16
     /tmp/cckUmUVM.s:629    .text:00000000000002b8 .LVL41
     /tmp/cckUmUVM.s:583    .text:0000000000000278 .LFB40
     /tmp/cckUmUVM.s:608    .text:00000000000002a0 .LFE40
     /tmp/cckUmUVM.s:597    .text:0000000000000290 .LVL39
     /tmp/cckUmUVM.s:389    .text:000000000000016c .LFB39
     /tmp/cckUmUVM.s:425    .text:00000000000001a4 .LFE39
     /tmp/cckUmUVM.s:4228   .debug_loc:0000000000000166 .LLST10
     /tmp/cckUmUVM.s:421    .text:00000000000001a0 .LVL26
     /tmp/cckUmUVM.s:4613   .debug_str:00000000000000eb .LASF134
     /tmp/cckUmUVM.s:4853   .debug_str:000000000000086a .LASF133
     /tmp/cckUmUVM.s:678    .text:00000000000002f0 .LFB37
     /tmp/cckUmUVM.s:739    .text:0000000000000360 .LFE37
     /tmp/cckUmUVM.s:4239   .debug_loc:000000000000019c .LLST18
GAS LISTING /tmp/cckUmUVM.s 			page 31


     /tmp/cckUmUVM.s:4257   .debug_loc:00000000000001e8 .LLST19
     /tmp/cckUmUVM.s:704    .text:0000000000000320 .LBB16
     /tmp/cckUmUVM.s:714    .text:0000000000000328 .LBE16
     /tmp/cckUmUVM.s:4275   .debug_loc:0000000000000234 .LLST20
     /tmp/cckUmUVM.s:4282   .debug_loc:0000000000000257 .LLST21
     /tmp/cckUmUVM.s:4289   .debug_loc:000000000000027a .LLST22
     /tmp/cckUmUVM.s:701    .text:000000000000031c .LVL46
     /tmp/cckUmUVM.s:719    .text:000000000000033c .LVL49
     /tmp/cckUmUVM.s:4799   .debug_str:00000000000006c1 .LASF135
     /tmp/cckUmUVM.s:4675   .debug_str:00000000000002c6 .LASF177
     /tmp/cckUmUVM.s:549    .text:000000000000024c .LFB32
     /tmp/cckUmUVM.s:577    .text:0000000000000278 .LFE32
     /tmp/cckUmUVM.s:4296   .debug_loc:000000000000029d .LLST15
     /tmp/cckUmUVM.s:566    .text:0000000000000268 .LVL38
     /tmp/cckUmUVM.s:515    .text:0000000000000220 .LFB31
     /tmp/cckUmUVM.s:543    .text:000000000000024c .LFE31
     /tmp/cckUmUVM.s:4310   .debug_loc:00000000000002d6 .LLST14
     /tmp/cckUmUVM.s:532    .text:000000000000023c .LVL35
     /tmp/cckUmUVM.s:4755   .debug_str:0000000000000560 .LASF136
     /tmp/cckUmUVM.s:818    .text:00000000000003c8 .LFB30
     /tmp/cckUmUVM.s:851    .text:0000000000000408 .LFE30
     /tmp/cckUmUVM.s:4324   .debug_loc:000000000000030f .LLST25
     /tmp/cckUmUVM.s:835    .text:00000000000003e8 .LVL59
     /tmp/cckUmUVM.s:838    .text:00000000000003f4 .LVL60
     /tmp/cckUmUVM.s:4601   .debug_str:00000000000000a6 .LASF137
     /tmp/cckUmUVM.s:201    .text:0000000000000080 .LFB28
     /tmp/cckUmUVM.s:236    .text:00000000000000b8 .LFE28
     /tmp/cckUmUVM.s:4342   .debug_loc:000000000000035b .LLST4
     /tmp/cckUmUVM.s:224    .text:00000000000000a8 .LVL13
     /tmp/cckUmUVM.s:4611   .debug_str:00000000000000e6 .LASF138
     /tmp/cckUmUVM.s:4629   .debug_str:000000000000015c .LASF139
     /tmp/cckUmUVM.s:474    .text:00000000000001e8 .LFB25
     /tmp/cckUmUVM.s:507    .text:0000000000000220 .LFE25
     /tmp/cckUmUVM.s:4356   .debug_loc:0000000000000394 .LLST12
     /tmp/cckUmUVM.s:4376   .debug_loc:00000000000003e2 .LLST13
     /tmp/cckUmUVM.s:495    .text:0000000000000210 .LVL32
     /tmp/cckUmUVM.s:62     .text:0000000000000000 .LFB23
     /tmp/cckUmUVM.s:94     .text:000000000000002c .LFE23
     /tmp/cckUmUVM.s:4390   .debug_loc:000000000000041b .LLST0
     /tmp/cckUmUVM.s:4404   .debug_loc:0000000000000454 .LLST1
     /tmp/cckUmUVM.s:83     .text:000000000000001c .LVL4
     /tmp/cckUmUVM.s:4825   .debug_str:0000000000000775 .LASF140
     /tmp/cckUmUVM.s:431    .text:00000000000001a4 .LFB21
     /tmp/cckUmUVM.s:466    .text:00000000000001e8 .LFE21
     /tmp/cckUmUVM.s:4418   .debug_loc:000000000000048d .LLST11
     /tmp/cckUmUVM.s:454    .text:00000000000001d8 .LVL29
     /tmp/cckUmUVM.s:357    .text:0000000000000144 .LFB19
     /tmp/cckUmUVM.s:383    .text:000000000000016c .LFE19
     /tmp/cckUmUVM.s:4436   .debug_loc:00000000000004d9 .LLST9
     /tmp/cckUmUVM.s:372    .text:000000000000015c .LVL22
     /tmp/cckUmUVM.s:326    .text:000000000000011c .LFB18
     /tmp/cckUmUVM.s:351    .text:0000000000000144 .LFE18
     /tmp/cckUmUVM.s:340    .text:0000000000000134 .LVL20
     /tmp/cckUmUVM.s:292    .text:00000000000000f0 .LFB17
     /tmp/cckUmUVM.s:320    .text:000000000000011c .LFE17
     /tmp/cckUmUVM.s:4450   .debug_loc:0000000000000512 .LLST8
     /tmp/cckUmUVM.s:309    .text:000000000000010c .LVL19
GAS LISTING /tmp/cckUmUVM.s 			page 32


     /tmp/cckUmUVM.s:4901   .debug_str:0000000000000a89 .LASF141
     /tmp/cckUmUVM.s:779    .text:0000000000000388 .LFB16
     /tmp/cckUmUVM.s:812    .text:00000000000003c8 .LFE16
     /tmp/cckUmUVM.s:4464   .debug_loc:000000000000054b .LLST24
     /tmp/cckUmUVM.s:796    .text:00000000000003a8 .LVL55
     /tmp/cckUmUVM.s:799    .text:00000000000003b4 .LVL56
     /tmp/cckUmUVM.s:4807   .debug_str:00000000000006eb .LASF142
     /tmp/cckUmUVM.s:100    .text:000000000000002c .LFB14
     /tmp/cckUmUVM.s:147    .text:0000000000000080 .LFE14
     /tmp/cckUmUVM.s:4482   .debug_loc:0000000000000597 .LLST2
     /tmp/cckUmUVM.s:129    .text:0000000000000060 .LVL7
     /tmp/cckUmUVM.s:132    .text:000000000000006c .LVL8
     /tmp/cckUmUVM.s:4885   .debug_str:00000000000009ee .LASF143
     /tmp/cckUmUVM.s:251    .text:00000000000000b8 .LFB11
     /tmp/cckUmUVM.s:284    .text:00000000000000f0 .LFE11
     /tmp/cckUmUVM.s:4496   .debug_loc:00000000000005d0 .LLST5
     /tmp/cckUmUVM.s:4516   .debug_loc:000000000000061e .LLST6
     /tmp/cckUmUVM.s:4530   .debug_loc:0000000000000657 .LLST7
     /tmp/cckUmUVM.s:272    .text:00000000000000e0 .LVL16
     /tmp/cckUmUVM.s:37     .text._ZN14PeriodicThread18periodicActivationEv:0000000000000000 .LFB9
     /tmp/cckUmUVM.s:55     .text._ZN14PeriodicThread18periodicActivationEv:0000000000000018 .LFE9
     /tmp/cckUmUVM.s:11     .text._ZN6Thread3runEv:0000000000000000 .LFB8
     /tmp/cckUmUVM.s:30     .text._ZN6Thread3runEv:0000000000000018 .LFE8
     /tmp/cckUmUVM.s:4815   .debug_str:000000000000071f .LASF144
     /tmp/cckUmUVM.s:4711   .debug_str:00000000000003eb .LASF146
     /tmp/cckUmUVM.s:4705   .debug_str:00000000000003cb .LASF145
     /tmp/cckUmUVM.s:4775   .debug_str:00000000000005f7 .LASF147
     /tmp/cckUmUVM.s:4859   .debug_str:000000000000089b .LASF148
     /tmp/cckUmUVM.s:4903   .debug_str:0000000000000a98 .LASF149
     /tmp/cckUmUVM.s:4831   .debug_str:0000000000000795 .LASF151
     /tmp/cckUmUVM.s:4707   .debug_str:00000000000003d9 .LASF152
     /tmp/cckUmUVM.s:4609   .debug_str:00000000000000cd .LASF153
     /tmp/cckUmUVM.s:4931   .debug_str:0000000000000b61 .LASF154
     /tmp/cckUmUVM.s:4639   .debug_str:00000000000001ad .LASF155
     /tmp/cckUmUVM.s:4811   .debug_str:0000000000000705 .LASF156
     /tmp/cckUmUVM.s:4927   .debug_str:0000000000000b3d .LASF157
     /tmp/cckUmUVM.s:4603   .debug_str:00000000000000b8 .LASF158
     /tmp/cckUmUVM.s:4777   .debug_str:0000000000000601 .LASF159
     /tmp/cckUmUVM.s:4645   .debug_str:00000000000001f1 .LASF160
     /tmp/cckUmUVM.s:4803   .debug_str:00000000000006d4 .LASF161
     /tmp/cckUmUVM.s:4647   .debug_str:0000000000000204 .LASF162
     /tmp/cckUmUVM.s:4599   .debug_str:0000000000000091 .LASF163
     /tmp/cckUmUVM.s:4813   .debug_str:000000000000070f .LASF164
     /tmp/cckUmUVM.s:4641   .debug_str:00000000000001c7 .LASF165
     /tmp/cckUmUVM.s:4797   .debug_str:00000000000006b4 .LASF166
     /tmp/cckUmUVM.s:861    .text._ZN14PeriodicThreadD0Ev:0000000000000000 .LVL62
     /tmp/cckUmUVM.s:893    .text._ZN14PeriodicThreadD0Ev:0000000000000044 .LVL66
     /tmp/cckUmUVM.s:873    .text._ZN14PeriodicThreadD0Ev:0000000000000018 .LVL63
     /tmp/cckUmUVM.s:167    .text._ZN14PeriodicThreadD2Ev:0000000000000000 .LVL9
     /tmp/cckUmUVM.s:750    .text:0000000000000360 .LVL52
     /tmp/cckUmUVM.s:649    .text:00000000000002c8 .LVL42
     /tmp/cckUmUVM.s:617    .text:00000000000002a0 .LVL40
     /tmp/cckUmUVM.s:392    .text:000000000000016c .LVL23
     /tmp/cckUmUVM.s:405    .text:0000000000000184 .LVL24
     /tmp/cckUmUVM.s:681    .text:00000000000002f0 .LVL44
     /tmp/cckUmUVM.s:699    .text:0000000000000314 .LVL45
     /tmp/cckUmUVM.s:731    .text:0000000000000354 .LVL50
GAS LISTING /tmp/cckUmUVM.s 			page 33


     /tmp/cckUmUVM.s:734    .text:0000000000000358 .LVL51
     /tmp/cckUmUVM.s:703    .text:0000000000000320 .LVL47
     /tmp/cckUmUVM.s:712    .text:0000000000000328 .LVL48
     /tmp/cckUmUVM.s:552    .text:000000000000024c .LVL36
     /tmp/cckUmUVM.s:564    .text:0000000000000260 .LVL37
     /tmp/cckUmUVM.s:518    .text:0000000000000220 .LVL33
     /tmp/cckUmUVM.s:530    .text:0000000000000234 .LVL34
     /tmp/cckUmUVM.s:821    .text:00000000000003c8 .LVL58
     /tmp/cckUmUVM.s:846    .text:0000000000000400 .LVL61
     /tmp/cckUmUVM.s:206    .text:0000000000000080 .LVL11
     /tmp/cckUmUVM.s:222    .text:00000000000000a0 .LVL12
     /tmp/cckUmUVM.s:477    .text:00000000000001e8 .LVL30
     /tmp/cckUmUVM.s:493    .text:0000000000000208 .LVL31
     /tmp/cckUmUVM.s:66     .text:0000000000000000 .LVL2
     /tmp/cckUmUVM.s:76     .text:0000000000000010 .LVL3
     /tmp/cckUmUVM.s:434    .text:00000000000001a4 .LVL27
     /tmp/cckUmUVM.s:452    .text:00000000000001d0 .LVL28
     /tmp/cckUmUVM.s:360    .text:0000000000000144 .LVL21
     /tmp/cckUmUVM.s:295    .text:00000000000000f0 .LVL17
     /tmp/cckUmUVM.s:307    .text:0000000000000104 .LVL18
     /tmp/cckUmUVM.s:782    .text:0000000000000388 .LVL54
     /tmp/cckUmUVM.s:807    .text:00000000000003c0 .LVL57
     /tmp/cckUmUVM.s:105    .text:000000000000002c .LVL5
     /tmp/cckUmUVM.s:127    .text:0000000000000058 .LVL6
     /tmp/cckUmUVM.s:254    .text:00000000000000b8 .LVL14
     /tmp/cckUmUVM.s:270    .text:00000000000000d8 .LVL15
     /tmp/cckUmUVM.s:939    .debug_info:0000000000000000 .Ldebug_info0
     /tmp/cckUmUVM.s:5      .text:0000000000000000 .Ltext0
     /tmp/cckUmUVM.s:934    .text:0000000000000408 .Letext0
     /tmp/cckUmUVM.s:150    .gcc_except_table:0000000000000000 .LLSDA14
     /tmp/cckUmUVM.s:238    .gcc_except_table:0000000000000004 .LLSDA28
                           .group:0000000000000000 _ZN14PeriodicThreadD5Ev

UNDEFINED SYMBOLS
_ZN7ThreadKD1Ev
_ZN7ThreadKdlEPv
__gxx_personality_v0
_Z9sem_closeP10SemaphoreK
_Z18thread_create_onlyPP7ThreadKPFvPvES2_
_Z12thread_startP7ThreadK
_Z15thread_dispatchv
_Z10time_sleepm
_Z8sem_openPP10SemaphoreKj
_Z8sem_waitP10SemaphoreK
_Z10sem_signalP10SemaphoreK
_Z4getcv
_Z4putcc
_Z9mem_allocm
_Z8mem_freePv
