GAS LISTING /tmp/cckUmUVM.s 			page 1


   1              		.file	"syscall_cpp.cpp"
   2              		.option pic
   3              		.option norelax
   4              		.text
   5              	.Ltext0:
   6              		.section	.text._ZN6Thread3runEv,"axG",@progbits,_ZN6Thread3runEv,comdat
   7              		.align	2
   8              		.weak	_ZN6Thread3runEv
  10              	_ZN6Thread3runEv:
  11              	.LFB8:
  12              		.file 1 "src/../h/syscall_cpp.hpp"
   1:src/../h/syscall_cpp.hpp **** //
   2:src/../h/syscall_cpp.hpp **** // Created by os on 6/20/22.
   3:src/../h/syscall_cpp.hpp **** //
   4:src/../h/syscall_cpp.hpp **** 
   5:src/../h/syscall_cpp.hpp **** #ifndef _syscall_cpp
   6:src/../h/syscall_cpp.hpp **** #define _syscall_cpp
   7:src/../h/syscall_cpp.hpp **** #include "syscall_c.h"
   8:src/../h/syscall_cpp.hpp **** 
   9:src/../h/syscall_cpp.hpp **** void* operator new (size_t);
  10:src/../h/syscall_cpp.hpp **** void operator delete (void*);
  11:src/../h/syscall_cpp.hpp **** 
  12:src/../h/syscall_cpp.hpp **** class Thread {
  13:src/../h/syscall_cpp.hpp **** public:
  14:src/../h/syscall_cpp.hpp ****     Thread (void (*body)(void*), void* arg);
  15:src/../h/syscall_cpp.hpp ****     virtual ~Thread ();
  16:src/../h/syscall_cpp.hpp ****     int start ();
  17:src/../h/syscall_cpp.hpp ****     static void dispatch ();
  18:src/../h/syscall_cpp.hpp ****     static int sleep (time_t);
  19:src/../h/syscall_cpp.hpp **** protected:
  20:src/../h/syscall_cpp.hpp ****     Thread ();
  21:src/../h/syscall_cpp.hpp ****     virtual void run () {}
  13              		.loc 1 21 18
  14              		.cfi_startproc
  15              	.LVL0:
  16 0000 130101FF 		addi	sp,sp,-16
  17              		.cfi_def_cfa_offset 16
  18 0004 23348100 		sd	s0,8(sp)
  19              		.cfi_offset 8, -8
  20 0008 13040101 		addi	s0,sp,16
  21              		.cfi_def_cfa 8, 0
  22              		.loc 1 21 26 is_stmt 0
  23 000c 03348100 		ld	s0,8(sp)
  24              		.cfi_restore 8
  25              		.cfi_def_cfa 2, 16
  26 0010 13010101 		addi	sp,sp,16
  27              		.cfi_def_cfa_offset 0
  28 0014 67800000 		jr	ra
  29              		.cfi_endproc
  30              	.LFE8:
  32              		.section	.text._ZN14PeriodicThread18periodicActivationEv,"axG",@progbits,_ZN14PeriodicThread18peri
  33              		.align	2
  34              		.weak	_ZN14PeriodicThread18periodicActivationEv
  36              	_ZN14PeriodicThread18periodicActivationEv:
  37              	.LFB9:
  22:src/../h/syscall_cpp.hpp **** private:
  23:src/../h/syscall_cpp.hpp ****     static void helperWrapper(void* arg);
GAS LISTING /tmp/cckUmUVM.s 			page 2


  24:src/../h/syscall_cpp.hpp ****     thread_t myHandle;
  25:src/../h/syscall_cpp.hpp **** };
  26:src/../h/syscall_cpp.hpp **** class Semaphore {
  27:src/../h/syscall_cpp.hpp **** public:
  28:src/../h/syscall_cpp.hpp ****     Semaphore (unsigned init = 1);
  29:src/../h/syscall_cpp.hpp ****     virtual ~Semaphore ();
  30:src/../h/syscall_cpp.hpp ****     int wait ();
  31:src/../h/syscall_cpp.hpp ****     int signal ();
  32:src/../h/syscall_cpp.hpp **** private:
  33:src/../h/syscall_cpp.hpp ****     sem_t myHandle;
  34:src/../h/syscall_cpp.hpp **** };
  35:src/../h/syscall_cpp.hpp **** class PeriodicThread : public Thread {
  36:src/../h/syscall_cpp.hpp **** protected:
  37:src/../h/syscall_cpp.hpp ****     PeriodicThread (time_t period);
  38:src/../h/syscall_cpp.hpp ****     virtual void periodicActivation () {}
  38              		.loc 1 38 18 is_stmt 1
  39              		.cfi_startproc
  40              	.LVL1:
  41 0000 130101FF 		addi	sp,sp,-16
  42              		.cfi_def_cfa_offset 16
  43 0004 23348100 		sd	s0,8(sp)
  44              		.cfi_offset 8, -8
  45 0008 13040101 		addi	s0,sp,16
  46              		.cfi_def_cfa 8, 0
  47              		.loc 1 38 41 is_stmt 0
  48 000c 03348100 		ld	s0,8(sp)
  49              		.cfi_restore 8
  50              		.cfi_def_cfa 2, 16
  51 0010 13010101 		addi	sp,sp,16
  52              		.cfi_def_cfa_offset 0
  53 0014 67800000 		jr	ra
  54              		.cfi_endproc
  55              	.LFE9:
  57              		.text
  58              		.align	2
  59              		.globl	_ZN6Thread13helperWrapperEPv
  61              	_ZN6Thread13helperWrapperEPv:
  62              	.LFB23:
  63              		.file 2 "src/syscall_cpp.cpp"
   1:src/syscall_cpp.cpp **** //
   2:src/syscall_cpp.cpp **** // Created by os on 6/21/22.
   3:src/syscall_cpp.cpp **** //
   4:src/syscall_cpp.cpp **** #include "../h/syscall_cpp.hpp"
   5:src/syscall_cpp.cpp **** 
   6:src/syscall_cpp.cpp **** Thread::Thread(void (*body)(void *), void *arg) {
   7:src/syscall_cpp.cpp ****     thread_create_only(&myHandle, body, arg);
   8:src/syscall_cpp.cpp **** }
   9:src/syscall_cpp.cpp **** 
  10:src/syscall_cpp.cpp **** Thread::~Thread() {
  11:src/syscall_cpp.cpp ****     delete myHandle;
  12:src/syscall_cpp.cpp **** }
  13:src/syscall_cpp.cpp **** 
  14:src/syscall_cpp.cpp **** int Thread::start() {
  15:src/syscall_cpp.cpp ****     return thread_start(myHandle);
  16:src/syscall_cpp.cpp **** }
  17:src/syscall_cpp.cpp **** 
  18:src/syscall_cpp.cpp **** void Thread::dispatch() {
GAS LISTING /tmp/cckUmUVM.s 			page 3


  19:src/syscall_cpp.cpp ****     thread_dispatch();
  20:src/syscall_cpp.cpp **** }
  21:src/syscall_cpp.cpp **** 
  22:src/syscall_cpp.cpp **** int Thread::sleep(time_t time) {
  23:src/syscall_cpp.cpp ****     return time_sleep(time);
  24:src/syscall_cpp.cpp **** }
  25:src/syscall_cpp.cpp **** 
  26:src/syscall_cpp.cpp **** Thread::Thread() {
  27:src/syscall_cpp.cpp ****     thread_create_only(&myHandle, helperWrapper, this);
  28:src/syscall_cpp.cpp **** }
  29:src/syscall_cpp.cpp **** 
  30:src/syscall_cpp.cpp **** void Thread::helperWrapper(void *arg) {
  64              		.loc 2 30 39 is_stmt 1
  65              		.cfi_startproc
  66              	.LVL2:
  67 0000 130101FF 		addi	sp,sp,-16
  68              		.cfi_def_cfa_offset 16
  69 0004 23341100 		sd	ra,8(sp)
  70 0008 23308100 		sd	s0,0(sp)
  71              		.cfi_offset 1, -8
  72              		.cfi_offset 8, -16
  73 000c 13040101 		addi	s0,sp,16
  74              		.cfi_def_cfa 8, 0
  31:src/syscall_cpp.cpp ****     Thread *t = (Thread *) arg;
  75              		.loc 2 31 5
  76              	.LVL3:
  32:src/syscall_cpp.cpp ****     t->run();
  77              		.loc 2 32 5
  78              		.loc 2 32 12 is_stmt 0
  79 0010 83370500 		ld	a5,0(a0)
  80 0014 83B70701 		ld	a5,16(a5)
  81              		.loc 2 32 11
  82 0018 E7800700 		jalr	a5
  83              	.LVL4:
  33:src/syscall_cpp.cpp **** }
  84              		.loc 2 33 1
  85 001c 83308100 		ld	ra,8(sp)
  86              		.cfi_restore 1
  87 0020 03340100 		ld	s0,0(sp)
  88              		.cfi_restore 8
  89              		.cfi_def_cfa 2, 16
  90 0024 13010101 		addi	sp,sp,16
  91              		.cfi_def_cfa_offset 0
  92 0028 67800000 		jr	ra
  93              		.cfi_endproc
  94              	.LFE23:
  96              		.align	2
  97              		.globl	_ZN6ThreadD2Ev
  99              	_ZN6ThreadD2Ev:
 100              	.LFB14:
  10:src/syscall_cpp.cpp ****     delete myHandle;
 101              		.loc 2 10 1 is_stmt 1
 102              		.cfi_startproc
 103              		.cfi_personality 0x9b,DW.ref.__gxx_personality_v0
 104              		.cfi_lsda 0x1b,.LLSDA14
 105              	.LVL5:
 106 002c 130101FE 		addi	sp,sp,-32
GAS LISTING /tmp/cckUmUVM.s 			page 4


 107              		.cfi_def_cfa_offset 32
 108 0030 233C1100 		sd	ra,24(sp)
 109 0034 23388100 		sd	s0,16(sp)
 110 0038 23349100 		sd	s1,8(sp)
 111              		.cfi_offset 1, -8
 112              		.cfi_offset 8, -16
 113              		.cfi_offset 9, -24
 114 003c 13040102 		addi	s0,sp,32
 115              		.cfi_def_cfa 8, 0
 116              	.LBB9:
  10:src/syscall_cpp.cpp ****     delete myHandle;
 117              		.loc 2 10 17 is_stmt 0
 118 0040 97070000 		lla	a5,_ZTV6Thread+16
 118      93870700 
 119 0048 2330F500 		sd	a5,0(a0)
  11:src/syscall_cpp.cpp **** }
 120              		.loc 2 11 5 is_stmt 1
  11:src/syscall_cpp.cpp **** }
 121              		.loc 2 11 12 is_stmt 0
 122 004c 83348500 		ld	s1,8(a0)
  11:src/syscall_cpp.cpp **** }
 123              		.loc 2 11 20
 124 0050 638E0400 		beqz	s1,.L7
  11:src/syscall_cpp.cpp **** }
 125              		.loc 2 11 12 discriminator 1
 126 0054 13850400 		mv	a0,s1
 127              	.LVL6:
 128 0058 97000000 		call	_ZN7ThreadKD1Ev@plt
 128      E7800000 
 129              	.LVL7:
 130 0060 13850400 		mv	a0,s1
 131 0064 97000000 		call	_ZN7ThreadKdlEPv@plt
 131      E7800000 
 132              	.LVL8:
 133              	.L7:
 134              	.LBE9:
  12:src/syscall_cpp.cpp **** 
 135              		.loc 2 12 1
 136 006c 83308101 		ld	ra,24(sp)
 137              		.cfi_restore 1
 138 0070 03340101 		ld	s0,16(sp)
 139              		.cfi_restore 8
 140              		.cfi_def_cfa 2, 32
 141 0074 83348100 		ld	s1,8(sp)
 142              		.cfi_restore 9
 143 0078 13010102 		addi	sp,sp,32
 144              		.cfi_def_cfa_offset 0
 145 007c 67800000 		jr	ra
 146              		.cfi_endproc
 147              	.LFE14:
 148              		.globl	__gxx_personality_v0
 149              		.section	.gcc_except_table,"a",@progbits
 150              	.LLSDA14:
 151 0000 FF       		.byte	0xff
 152 0001 FF       		.byte	0xff
 153 0002 03       		.byte	0x3
 154 0003 00       		.byte	0
GAS LISTING /tmp/cckUmUVM.s 			page 5


 155              		.text
 157              		.globl	_ZN6ThreadD1Ev
 158              		.set	_ZN6ThreadD1Ev,_ZN6ThreadD2Ev
 159              		.section	.text._ZN14PeriodicThreadD2Ev,"axG",@progbits,_ZN14PeriodicThreadD5Ev,comdat
 160              		.align	2
 161              		.weak	_ZN14PeriodicThreadD2Ev
 163              	_ZN14PeriodicThreadD2Ev:
 164              	.LFB45:
  35:src/../h/syscall_cpp.hpp **** protected:
 165              		.loc 1 35 7 is_stmt 1
 166              		.cfi_startproc
 167              	.LVL9:
 168 0000 130101FF 		addi	sp,sp,-16
 169              		.cfi_def_cfa_offset 16
 170 0004 23341100 		sd	ra,8(sp)
 171 0008 23308100 		sd	s0,0(sp)
 172              		.cfi_offset 1, -8
 173              		.cfi_offset 8, -16
 174 000c 13040101 		addi	s0,sp,16
 175              		.cfi_def_cfa 8, 0
 176              	.LBB10:
  35:src/../h/syscall_cpp.hpp **** protected:
 177              		.loc 1 35 7 is_stmt 0
 178 0010 97070000 		lla	a5,_ZTV14PeriodicThread+16
 178      93870700 
 179 0018 2330F500 		sd	a5,0(a0)
 180 001c 97000000 		call	_ZN6ThreadD2Ev
 180      E7800000 
 181              	.LVL10:
 182              	.LBE10:
 183 0024 83308100 		ld	ra,8(sp)
 184              		.cfi_restore 1
 185 0028 03340100 		ld	s0,0(sp)
 186              		.cfi_restore 8
 187              		.cfi_def_cfa 2, 16
 188 002c 13010101 		addi	sp,sp,16
 189              		.cfi_def_cfa_offset 0
 190 0030 67800000 		jr	ra
 191              		.cfi_endproc
 192              	.LFE45:
 194              		.weak	_ZN14PeriodicThreadD1Ev
 195              		.set	_ZN14PeriodicThreadD1Ev,_ZN14PeriodicThreadD2Ev
 196              		.text
 197              		.align	2
 198              		.globl	_ZN9SemaphoreD2Ev
 200              	_ZN9SemaphoreD2Ev:
 201              	.LFB28:
  34:src/syscall_cpp.cpp **** 
  35:src/syscall_cpp.cpp **** Semaphore::Semaphore(unsigned int init) {
  36:src/syscall_cpp.cpp ****     sem_open(&myHandle, init);
  37:src/syscall_cpp.cpp **** }
  38:src/syscall_cpp.cpp **** 
  39:src/syscall_cpp.cpp **** Semaphore::~Semaphore() {
 202              		.loc 2 39 1 is_stmt 1
 203              		.cfi_startproc
 204              		.cfi_personality 0x9b,DW.ref.__gxx_personality_v0
 205              		.cfi_lsda 0x1b,.LLSDA28
GAS LISTING /tmp/cckUmUVM.s 			page 6


 206              	.LVL11:
 207 0080 130101FF 		addi	sp,sp,-16
 208              		.cfi_def_cfa_offset 16
 209 0084 23341100 		sd	ra,8(sp)
 210 0088 23308100 		sd	s0,0(sp)
 211              		.cfi_offset 1, -8
 212              		.cfi_offset 8, -16
 213 008c 13040101 		addi	s0,sp,16
 214              		.cfi_def_cfa 8, 0
 215              	.LBB11:
 216              		.loc 2 39 23 is_stmt 0
 217 0090 97070000 		lla	a5,_ZTV9Semaphore+16
 217      93870700 
 218 0098 2330F500 		sd	a5,0(a0)
  40:src/syscall_cpp.cpp ****     sem_close(myHandle);
 219              		.loc 2 40 5 is_stmt 1
 220              		.loc 2 40 14 is_stmt 0
 221 009c 03358500 		ld	a0,8(a0)
 222              	.LVL12:
 223 00a0 97000000 		call	_Z9sem_closeP10SemaphoreK@plt
 223      E7800000 
 224              	.LVL13:
 225              	.LBE11:
  41:src/syscall_cpp.cpp **** }
 226              		.loc 2 41 1
 227 00a8 83308100 		ld	ra,8(sp)
 228              		.cfi_restore 1
 229 00ac 03340100 		ld	s0,0(sp)
 230              		.cfi_restore 8
 231              		.cfi_def_cfa 2, 16
 232 00b0 13010101 		addi	sp,sp,16
 233              		.cfi_def_cfa_offset 0
 234 00b4 67800000 		jr	ra
 235              		.cfi_endproc
 236              	.LFE28:
 237              		.section	.gcc_except_table
 238              	.LLSDA28:
 239 0004 FF       		.byte	0xff
 240 0005 FF       		.byte	0xff
 241 0006 03       		.byte	0x3
 242 0007 00       		.byte	0
 243              		.text
 245              		.globl	_ZN9SemaphoreD1Ev
 246              		.set	_ZN9SemaphoreD1Ev,_ZN9SemaphoreD2Ev
 247              		.align	2
 248              		.globl	_ZN6ThreadC2EPFvPvES0_
 250              	_ZN6ThreadC2EPFvPvES0_:
 251              	.LFB11:
   6:src/syscall_cpp.cpp ****     thread_create_only(&myHandle, body, arg);
 252              		.loc 2 6 1 is_stmt 1
 253              		.cfi_startproc
 254              	.LVL14:
 255 00b8 130101FF 		addi	sp,sp,-16
 256              		.cfi_def_cfa_offset 16
 257 00bc 23341100 		sd	ra,8(sp)
 258 00c0 23308100 		sd	s0,0(sp)
 259              		.cfi_offset 1, -8
GAS LISTING /tmp/cckUmUVM.s 			page 7


 260              		.cfi_offset 8, -16
 261 00c4 13040101 		addi	s0,sp,16
 262              		.cfi_def_cfa 8, 0
 263              	.LBB12:
   6:src/syscall_cpp.cpp ****     thread_create_only(&myHandle, body, arg);
 264              		.loc 2 6 47 is_stmt 0
 265 00c8 97070000 		lla	a5,_ZTV6Thread+16
 265      93870700 
 266 00d0 2330F500 		sd	a5,0(a0)
   7:src/syscall_cpp.cpp **** }
 267              		.loc 2 7 5 is_stmt 1
   7:src/syscall_cpp.cpp **** }
 268              		.loc 2 7 23 is_stmt 0
 269 00d4 13058500 		addi	a0,a0,8
 270              	.LVL15:
 271 00d8 97000000 		call	_Z18thread_create_onlyPP7ThreadKPFvPvES2_@plt
 271      E7800000 
 272              	.LVL16:
 273              	.LBE12:
   8:src/syscall_cpp.cpp **** 
 274              		.loc 2 8 1
 275 00e0 83308100 		ld	ra,8(sp)
 276              		.cfi_restore 1
 277 00e4 03340100 		ld	s0,0(sp)
 278              		.cfi_restore 8
 279              		.cfi_def_cfa 2, 16
 280 00e8 13010101 		addi	sp,sp,16
 281              		.cfi_def_cfa_offset 0
 282 00ec 67800000 		jr	ra
 283              		.cfi_endproc
 284              	.LFE11:
 286              		.globl	_ZN6ThreadC1EPFvPvES0_
 287              		.set	_ZN6ThreadC1EPFvPvES0_,_ZN6ThreadC2EPFvPvES0_
 288              		.align	2
 289              		.globl	_ZN6Thread5startEv
 291              	_ZN6Thread5startEv:
 292              	.LFB17:
  14:src/syscall_cpp.cpp ****     return thread_start(myHandle);
 293              		.loc 2 14 21 is_stmt 1
 294              		.cfi_startproc
 295              	.LVL17:
 296 00f0 130101FF 		addi	sp,sp,-16
 297              		.cfi_def_cfa_offset 16
 298 00f4 23341100 		sd	ra,8(sp)
 299 00f8 23308100 		sd	s0,0(sp)
 300              		.cfi_offset 1, -8
 301              		.cfi_offset 8, -16
 302 00fc 13040101 		addi	s0,sp,16
 303              		.cfi_def_cfa 8, 0
  15:src/syscall_cpp.cpp **** }
 304              		.loc 2 15 5
  15:src/syscall_cpp.cpp **** }
 305              		.loc 2 15 24 is_stmt 0
 306 0100 03358500 		ld	a0,8(a0)
 307              	.LVL18:
 308 0104 97000000 		call	_Z12thread_startP7ThreadK@plt
 308      E7800000 
GAS LISTING /tmp/cckUmUVM.s 			page 8


 309              	.LVL19:
  16:src/syscall_cpp.cpp **** 
 310              		.loc 2 16 1
 311 010c 83308100 		ld	ra,8(sp)
 312              		.cfi_restore 1
 313 0110 03340100 		ld	s0,0(sp)
 314              		.cfi_restore 8
 315              		.cfi_def_cfa 2, 16
 316 0114 13010101 		addi	sp,sp,16
 317              		.cfi_def_cfa_offset 0
 318 0118 67800000 		jr	ra
 319              		.cfi_endproc
 320              	.LFE17:
 322              		.align	2
 323              		.globl	_ZN6Thread8dispatchEv
 325              	_ZN6Thread8dispatchEv:
 326              	.LFB18:
  18:src/syscall_cpp.cpp ****     thread_dispatch();
 327              		.loc 2 18 25 is_stmt 1
 328              		.cfi_startproc
 329 011c 130101FF 		addi	sp,sp,-16
 330              		.cfi_def_cfa_offset 16
 331 0120 23341100 		sd	ra,8(sp)
 332 0124 23308100 		sd	s0,0(sp)
 333              		.cfi_offset 1, -8
 334              		.cfi_offset 8, -16
 335 0128 13040101 		addi	s0,sp,16
 336              		.cfi_def_cfa 8, 0
  19:src/syscall_cpp.cpp **** }
 337              		.loc 2 19 5
  19:src/syscall_cpp.cpp **** }
 338              		.loc 2 19 20 is_stmt 0
 339 012c 97000000 		call	_Z15thread_dispatchv@plt
 339      E7800000 
 340              	.LVL20:
  20:src/syscall_cpp.cpp **** 
 341              		.loc 2 20 1
 342 0134 83308100 		ld	ra,8(sp)
 343              		.cfi_restore 1
 344 0138 03340100 		ld	s0,0(sp)
 345              		.cfi_restore 8
 346              		.cfi_def_cfa 2, 16
 347 013c 13010101 		addi	sp,sp,16
 348              		.cfi_def_cfa_offset 0
 349 0140 67800000 		jr	ra
 350              		.cfi_endproc
 351              	.LFE18:
 353              		.align	2
 354              		.globl	_ZN6Thread5sleepEm
 356              	_ZN6Thread5sleepEm:
 357              	.LFB19:
  22:src/syscall_cpp.cpp ****     return time_sleep(time);
 358              		.loc 2 22 32 is_stmt 1
 359              		.cfi_startproc
 360              	.LVL21:
 361 0144 130101FF 		addi	sp,sp,-16
 362              		.cfi_def_cfa_offset 16
GAS LISTING /tmp/cckUmUVM.s 			page 9


 363 0148 23341100 		sd	ra,8(sp)
 364 014c 23308100 		sd	s0,0(sp)
 365              		.cfi_offset 1, -8
 366              		.cfi_offset 8, -16
 367 0150 13040101 		addi	s0,sp,16
 368              		.cfi_def_cfa 8, 0
  23:src/syscall_cpp.cpp **** }
 369              		.loc 2 23 5
  23:src/syscall_cpp.cpp **** }
 370              		.loc 2 23 22 is_stmt 0
 371 0154 97000000 		call	_Z10time_sleepm@plt
 371      E7800000 
 372              	.LVL22:
  24:src/syscall_cpp.cpp **** 
 373              		.loc 2 24 1
 374 015c 83308100 		ld	ra,8(sp)
 375              		.cfi_restore 1
 376 0160 03340100 		ld	s0,0(sp)
 377              		.cfi_restore 8
 378              		.cfi_def_cfa 2, 16
 379 0164 13010101 		addi	sp,sp,16
 380              		.cfi_def_cfa_offset 0
 381 0168 67800000 		jr	ra
 382              		.cfi_endproc
 383              	.LFE19:
 385              		.align	2
 386              		.globl	_ZN14PeriodicThread15periodicWrapperEPv
 388              	_ZN14PeriodicThread15periodicWrapperEPv:
 389              	.LFB39:
  42:src/syscall_cpp.cpp **** 
  43:src/syscall_cpp.cpp **** int Semaphore::wait() {
  44:src/syscall_cpp.cpp ****     return sem_wait(myHandle);
  45:src/syscall_cpp.cpp **** }
  46:src/syscall_cpp.cpp **** 
  47:src/syscall_cpp.cpp **** int Semaphore::signal() {
  48:src/syscall_cpp.cpp ****     return sem_signal(myHandle);
  49:src/syscall_cpp.cpp **** }
  50:src/syscall_cpp.cpp **** 
  51:src/syscall_cpp.cpp **** struct periodicStruct {
  52:src/syscall_cpp.cpp ****     PeriodicThread *per;
  53:src/syscall_cpp.cpp ****     time_t t;
  54:src/syscall_cpp.cpp **** 
  55:src/syscall_cpp.cpp ****     periodicStruct(PeriodicThread *pt, time_t time) {
  56:src/syscall_cpp.cpp ****         per = pt;
  57:src/syscall_cpp.cpp ****         t = time;
  58:src/syscall_cpp.cpp ****     }
  59:src/syscall_cpp.cpp **** };
  60:src/syscall_cpp.cpp **** 
  61:src/syscall_cpp.cpp **** PeriodicThread::PeriodicThread(time_t period) : Thread(periodicWrapper, new periodicStruct(this, pe
  62:src/syscall_cpp.cpp **** 
  63:src/syscall_cpp.cpp **** }
  64:src/syscall_cpp.cpp **** 
  65:src/syscall_cpp.cpp **** void PeriodicThread::periodicWrapper(void *arg) {
 390              		.loc 2 65 49 is_stmt 1
 391              		.cfi_startproc
 392              	.LVL23:
 393 016c 130101FE 		addi	sp,sp,-32
GAS LISTING /tmp/cckUmUVM.s 			page 10


 394              		.cfi_def_cfa_offset 32
 395 0170 233C1100 		sd	ra,24(sp)
 396 0174 23388100 		sd	s0,16(sp)
 397 0178 23349100 		sd	s1,8(sp)
 398              		.cfi_offset 1, -8
 399              		.cfi_offset 8, -16
 400              		.cfi_offset 9, -24
 401 017c 13040102 		addi	s0,sp,32
 402              		.cfi_def_cfa 8, 0
 403 0180 93040500 		mv	s1,a0
  66:src/syscall_cpp.cpp ****     periodicStruct *ps = (periodicStruct *) arg;
 404              		.loc 2 66 5
 405              	.LVL24:
 406              	.L23:
  67:src/syscall_cpp.cpp ****     while (true) {
 407              		.loc 2 67 5 discriminator 1
  68:src/syscall_cpp.cpp ****         ps->per->periodicActivation();
 408              		.loc 2 68 9 discriminator 1
 409              		.loc 2 68 13 is_stmt 0 discriminator 1
 410 0184 03B50400 		ld	a0,0(s1)
 411              		.loc 2 68 37 discriminator 1
 412 0188 83370500 		ld	a5,0(a0)
 413 018c 83B78701 		ld	a5,24(a5)
 414              		.loc 2 68 36 discriminator 1
 415 0190 E7800700 		jalr	a5
 416              	.LVL25:
  69:src/syscall_cpp.cpp ****         sleep(ps->t);
 417              		.loc 2 69 9 is_stmt 1 discriminator 1
 418              		.loc 2 69 14 is_stmt 0 discriminator 1
 419 0194 03B58400 		ld	a0,8(s1)
 420 0198 97000000 		call	_ZN6Thread5sleepEm
 420      E7800000 
 421              	.LVL26:
  67:src/syscall_cpp.cpp ****     while (true) {
 422              		.loc 2 67 5 is_stmt 1 discriminator 1
 423 01a0 6FF05FFE 		j	.L23
 424              		.cfi_endproc
 425              	.LFE39:
 427              		.align	2
 428              		.globl	_ZN6ThreadC2Ev
 430              	_ZN6ThreadC2Ev:
 431              	.LFB21:
  26:src/syscall_cpp.cpp ****     thread_create_only(&myHandle, helperWrapper, this);
 432              		.loc 2 26 1
 433              		.cfi_startproc
 434              	.LVL27:
 435 01a4 130101FF 		addi	sp,sp,-16
 436              		.cfi_def_cfa_offset 16
 437 01a8 23341100 		sd	ra,8(sp)
 438 01ac 23308100 		sd	s0,0(sp)
 439              		.cfi_offset 1, -8
 440              		.cfi_offset 8, -16
 441 01b0 13040101 		addi	s0,sp,16
 442              		.cfi_def_cfa 8, 0
 443              	.LBB13:
  26:src/syscall_cpp.cpp ****     thread_create_only(&myHandle, helperWrapper, this);
 444              		.loc 2 26 16 is_stmt 0
GAS LISTING /tmp/cckUmUVM.s 			page 11


 445 01b4 97070000 		lla	a5,_ZTV6Thread+16
 445      93870700 
 446 01bc 2330F500 		sd	a5,0(a0)
  27:src/syscall_cpp.cpp **** }
 447              		.loc 2 27 5 is_stmt 1
  27:src/syscall_cpp.cpp **** }
 448              		.loc 2 27 23 is_stmt 0
 449 01c0 13060500 		mv	a2,a0
 450 01c4 97050000 		lla	a1,_ZN6Thread13helperWrapperEPv
 450      93850500 
 451 01cc 13058500 		addi	a0,a0,8
 452              	.LVL28:
 453 01d0 97000000 		call	_Z18thread_create_onlyPP7ThreadKPFvPvES2_@plt
 453      E7800000 
 454              	.LVL29:
 455              	.LBE13:
  28:src/syscall_cpp.cpp **** 
 456              		.loc 2 28 1
 457 01d8 83308100 		ld	ra,8(sp)
 458              		.cfi_restore 1
 459 01dc 03340100 		ld	s0,0(sp)
 460              		.cfi_restore 8
 461              		.cfi_def_cfa 2, 16
 462 01e0 13010101 		addi	sp,sp,16
 463              		.cfi_def_cfa_offset 0
 464 01e4 67800000 		jr	ra
 465              		.cfi_endproc
 466              	.LFE21:
 468              		.globl	_ZN6ThreadC1Ev
 469              		.set	_ZN6ThreadC1Ev,_ZN6ThreadC2Ev
 470              		.align	2
 471              		.globl	_ZN9SemaphoreC2Ej
 473              	_ZN9SemaphoreC2Ej:
 474              	.LFB25:
  35:src/syscall_cpp.cpp ****     sem_open(&myHandle, init);
 475              		.loc 2 35 1 is_stmt 1
 476              		.cfi_startproc
 477              	.LVL30:
 478 01e8 130101FF 		addi	sp,sp,-16
 479              		.cfi_def_cfa_offset 16
 480 01ec 23341100 		sd	ra,8(sp)
 481 01f0 23308100 		sd	s0,0(sp)
 482              		.cfi_offset 1, -8
 483              		.cfi_offset 8, -16
 484 01f4 13040101 		addi	s0,sp,16
 485              		.cfi_def_cfa 8, 0
 486              	.LBB14:
  35:src/syscall_cpp.cpp ****     sem_open(&myHandle, init);
 487              		.loc 2 35 39 is_stmt 0
 488 01f8 97070000 		lla	a5,_ZTV9Semaphore+16
 488      93870700 
 489 0200 2330F500 		sd	a5,0(a0)
  36:src/syscall_cpp.cpp **** }
 490              		.loc 2 36 5 is_stmt 1
  36:src/syscall_cpp.cpp **** }
 491              		.loc 2 36 13 is_stmt 0
 492 0204 13058500 		addi	a0,a0,8
GAS LISTING /tmp/cckUmUVM.s 			page 12


 493              	.LVL31:
 494 0208 97000000 		call	_Z8sem_openPP10SemaphoreKj@plt
 494      E7800000 
 495              	.LVL32:
 496              	.LBE14:
  37:src/syscall_cpp.cpp **** 
 497              		.loc 2 37 1
 498 0210 83308100 		ld	ra,8(sp)
 499              		.cfi_restore 1
 500 0214 03340100 		ld	s0,0(sp)
 501              		.cfi_restore 8
 502              		.cfi_def_cfa 2, 16
 503 0218 13010101 		addi	sp,sp,16
 504              		.cfi_def_cfa_offset 0
 505 021c 67800000 		jr	ra
 506              		.cfi_endproc
 507              	.LFE25:
 509              		.globl	_ZN9SemaphoreC1Ej
 510              		.set	_ZN9SemaphoreC1Ej,_ZN9SemaphoreC2Ej
 511              		.align	2
 512              		.globl	_ZN9Semaphore4waitEv
 514              	_ZN9Semaphore4waitEv:
 515              	.LFB31:
  43:src/syscall_cpp.cpp ****     return sem_wait(myHandle);
 516              		.loc 2 43 23 is_stmt 1
 517              		.cfi_startproc
 518              	.LVL33:
 519 0220 130101FF 		addi	sp,sp,-16
 520              		.cfi_def_cfa_offset 16
 521 0224 23341100 		sd	ra,8(sp)
 522 0228 23308100 		sd	s0,0(sp)
 523              		.cfi_offset 1, -8
 524              		.cfi_offset 8, -16
 525 022c 13040101 		addi	s0,sp,16
 526              		.cfi_def_cfa 8, 0
  44:src/syscall_cpp.cpp **** }
 527              		.loc 2 44 5
  44:src/syscall_cpp.cpp **** }
 528              		.loc 2 44 20 is_stmt 0
 529 0230 03358500 		ld	a0,8(a0)
 530              	.LVL34:
 531 0234 97000000 		call	_Z8sem_waitP10SemaphoreK@plt
 531      E7800000 
 532              	.LVL35:
  45:src/syscall_cpp.cpp **** 
 533              		.loc 2 45 1
 534 023c 83308100 		ld	ra,8(sp)
 535              		.cfi_restore 1
 536 0240 03340100 		ld	s0,0(sp)
 537              		.cfi_restore 8
 538              		.cfi_def_cfa 2, 16
 539 0244 13010101 		addi	sp,sp,16
 540              		.cfi_def_cfa_offset 0
 541 0248 67800000 		jr	ra
 542              		.cfi_endproc
 543              	.LFE31:
 545              		.align	2
GAS LISTING /tmp/cckUmUVM.s 			page 13


 546              		.globl	_ZN9Semaphore6signalEv
 548              	_ZN9Semaphore6signalEv:
 549              	.LFB32:
  47:src/syscall_cpp.cpp ****     return sem_signal(myHandle);
 550              		.loc 2 47 25 is_stmt 1
 551              		.cfi_startproc
 552              	.LVL36:
 553 024c 130101FF 		addi	sp,sp,-16
 554              		.cfi_def_cfa_offset 16
 555 0250 23341100 		sd	ra,8(sp)
 556 0254 23308100 		sd	s0,0(sp)
 557              		.cfi_offset 1, -8
 558              		.cfi_offset 8, -16
 559 0258 13040101 		addi	s0,sp,16
 560              		.cfi_def_cfa 8, 0
  48:src/syscall_cpp.cpp **** }
 561              		.loc 2 48 5
  48:src/syscall_cpp.cpp **** }
 562              		.loc 2 48 22 is_stmt 0
 563 025c 03358500 		ld	a0,8(a0)
 564              	.LVL37:
 565 0260 97000000 		call	_Z10sem_signalP10SemaphoreK@plt
 565      E7800000 
 566              	.LVL38:
  49:src/syscall_cpp.cpp **** 
 567              		.loc 2 49 1
 568 0268 83308100 		ld	ra,8(sp)
 569              		.cfi_restore 1
 570 026c 03340100 		ld	s0,0(sp)
 571              		.cfi_restore 8
 572              		.cfi_def_cfa 2, 16
 573 0270 13010101 		addi	sp,sp,16
 574              		.cfi_def_cfa_offset 0
 575 0274 67800000 		jr	ra
 576              		.cfi_endproc
 577              	.LFE32:
 579              		.align	2
 580              		.globl	_ZN7Console4getcEv
 582              	_ZN7Console4getcEv:
 583              	.LFB40:
  70:src/syscall_cpp.cpp ****     }
  71:src/syscall_cpp.cpp **** }
  72:src/syscall_cpp.cpp **** 
  73:src/syscall_cpp.cpp **** char Console::getc() {
 584              		.loc 2 73 22 is_stmt 1
 585              		.cfi_startproc
 586 0278 130101FF 		addi	sp,sp,-16
 587              		.cfi_def_cfa_offset 16
 588 027c 23341100 		sd	ra,8(sp)
 589 0280 23308100 		sd	s0,0(sp)
 590              		.cfi_offset 1, -8
 591              		.cfi_offset 8, -16
 592 0284 13040101 		addi	s0,sp,16
 593              		.cfi_def_cfa 8, 0
  74:src/syscall_cpp.cpp ****     return ::getc();
 594              		.loc 2 74 5
 595              		.loc 2 74 18 is_stmt 0
GAS LISTING /tmp/cckUmUVM.s 			page 14


 596 0288 97000000 		call	_Z4getcv@plt
 596      E7800000 
 597              	.LVL39:
  75:src/syscall_cpp.cpp **** }
 598              		.loc 2 75 1
 599 0290 83308100 		ld	ra,8(sp)
 600              		.cfi_restore 1
 601 0294 03340100 		ld	s0,0(sp)
 602              		.cfi_restore 8
 603              		.cfi_def_cfa 2, 16
 604 0298 13010101 		addi	sp,sp,16
 605              		.cfi_def_cfa_offset 0
 606 029c 67800000 		jr	ra
 607              		.cfi_endproc
 608              	.LFE40:
 610              		.align	2
 611              		.globl	_ZN7Console4putcEc
 613              	_ZN7Console4putcEc:
 614              	.LFB41:
  76:src/syscall_cpp.cpp **** 
  77:src/syscall_cpp.cpp **** void Console::putc(char c) {
 615              		.loc 2 77 28 is_stmt 1
 616              		.cfi_startproc
 617              	.LVL40:
 618 02a0 130101FF 		addi	sp,sp,-16
 619              		.cfi_def_cfa_offset 16
 620 02a4 23341100 		sd	ra,8(sp)
 621 02a8 23308100 		sd	s0,0(sp)
 622              		.cfi_offset 1, -8
 623              		.cfi_offset 8, -16
 624 02ac 13040101 		addi	s0,sp,16
 625              		.cfi_def_cfa 8, 0
  78:src/syscall_cpp.cpp ****     ::putc(c);
 626              		.loc 2 78 5
 627              		.loc 2 78 11 is_stmt 0
 628 02b0 97000000 		call	_Z4putcc@plt
 628      E7800000 
 629              	.LVL41:
  79:src/syscall_cpp.cpp **** }
 630              		.loc 2 79 1
 631 02b8 83308100 		ld	ra,8(sp)
 632              		.cfi_restore 1
 633 02bc 03340100 		ld	s0,0(sp)
 634              		.cfi_restore 8
 635              		.cfi_def_cfa 2, 16
 636 02c0 13010101 		addi	sp,sp,16
 637              		.cfi_def_cfa_offset 0
 638 02c4 67800000 		jr	ra
 639              		.cfi_endproc
 640              	.LFE41:
 642              		.align	2
 643              		.globl	_Znwm
 645              	_Znwm:
 646              	.LFB42:
  80:src/syscall_cpp.cpp **** 
  81:src/syscall_cpp.cpp **** void *operator new(size_t size) {
 647              		.loc 2 81 33 is_stmt 1
GAS LISTING /tmp/cckUmUVM.s 			page 15


 648              		.cfi_startproc
 649              	.LVL42:
 650 02c8 130101FF 		addi	sp,sp,-16
 651              		.cfi_def_cfa_offset 16
 652 02cc 23341100 		sd	ra,8(sp)
 653 02d0 23308100 		sd	s0,0(sp)
 654              		.cfi_offset 1, -8
 655              		.cfi_offset 8, -16
 656 02d4 13040101 		addi	s0,sp,16
 657              		.cfi_def_cfa 8, 0
  82:src/syscall_cpp.cpp ****     return mem_alloc(size);
 658              		.loc 2 82 5
 659              		.loc 2 82 21 is_stmt 0
 660 02d8 97000000 		call	_Z9mem_allocm@plt
 660      E7800000 
 661              	.LVL43:
  83:src/syscall_cpp.cpp **** }
 662              		.loc 2 83 1
 663 02e0 83308100 		ld	ra,8(sp)
 664              		.cfi_restore 1
 665 02e4 03340100 		ld	s0,0(sp)
 666              		.cfi_restore 8
 667              		.cfi_def_cfa 2, 16
 668 02e8 13010101 		addi	sp,sp,16
 669              		.cfi_def_cfa_offset 0
 670 02ec 67800000 		jr	ra
 671              		.cfi_endproc
 672              	.LFE42:
 674              		.align	2
 675              		.globl	_ZN14PeriodicThreadC2Em
 677              	_ZN14PeriodicThreadC2Em:
 678              	.LFB37:
  61:src/syscall_cpp.cpp **** 
 679              		.loc 2 61 1 is_stmt 1
 680              		.cfi_startproc
 681              	.LVL44:
 682 02f0 130101FE 		addi	sp,sp,-32
 683              		.cfi_def_cfa_offset 32
 684 02f4 233C1100 		sd	ra,24(sp)
 685 02f8 23388100 		sd	s0,16(sp)
 686 02fc 23349100 		sd	s1,8(sp)
 687 0300 23302101 		sd	s2,0(sp)
 688              		.cfi_offset 1, -8
 689              		.cfi_offset 8, -16
 690              		.cfi_offset 9, -24
 691              		.cfi_offset 18, -32
 692 0304 13040102 		addi	s0,sp,32
 693              		.cfi_def_cfa 8, 0
 694 0308 93040500 		mv	s1,a0
 695 030c 13890500 		mv	s2,a1
 696              	.LBB15:
  61:src/syscall_cpp.cpp **** 
 697              		.loc 2 61 104 is_stmt 0
 698 0310 13050001 		li	a0,16
 699              	.LVL45:
 700 0314 97000000 		call	_Znwm
 700      E7800000 
GAS LISTING /tmp/cckUmUVM.s 			page 16


 701              	.LVL46:
 702 031c 13060500 		mv	a2,a0
 703              	.LVL47:
 704              	.LBB16:
 705              	.LBB17:
  56:src/syscall_cpp.cpp ****         t = time;
 706              		.loc 2 56 9 is_stmt 1
  56:src/syscall_cpp.cpp ****         t = time;
 707              		.loc 2 56 13 is_stmt 0
 708 0320 23309500 		sd	s1,0(a0)
  57:src/syscall_cpp.cpp ****     }
 709              		.loc 2 57 9 is_stmt 1
  57:src/syscall_cpp.cpp ****     }
 710              		.loc 2 57 11 is_stmt 0
 711 0324 23342501 		sd	s2,8(a0)
 712              	.LVL48:
 713              	.LBE17:
 714              	.LBE16:
  61:src/syscall_cpp.cpp **** 
 715              		.loc 2 61 105
 716 0328 97050000 		lla	a1,_ZN14PeriodicThread15periodicWrapperEPv
 716      93850500 
 717 0330 13850400 		mv	a0,s1
 718 0334 97000000 		call	_ZN6ThreadC2EPFvPvES0_
 718      E7800000 
 719              	.LVL49:
 720 033c 97070000 		lla	a5,_ZTV14PeriodicThread+16
 720      93870700 
 721 0344 23B0F400 		sd	a5,0(s1)
 722              	.LBE15:
  63:src/syscall_cpp.cpp **** 
 723              		.loc 2 63 1
 724 0348 83308101 		ld	ra,24(sp)
 725              		.cfi_restore 1
 726 034c 03340101 		ld	s0,16(sp)
 727              		.cfi_restore 8
 728              		.cfi_def_cfa 2, 32
 729 0350 83348100 		ld	s1,8(sp)
 730              		.cfi_restore 9
 731              	.LVL50:
 732 0354 03390100 		ld	s2,0(sp)
 733              		.cfi_restore 18
 734              	.LVL51:
 735 0358 13010102 		addi	sp,sp,32
 736              		.cfi_def_cfa_offset 0
 737 035c 67800000 		jr	ra
 738              		.cfi_endproc
 739              	.LFE37:
 741              		.globl	_ZN14PeriodicThreadC1Em
 742              		.set	_ZN14PeriodicThreadC1Em,_ZN14PeriodicThreadC2Em
 743              		.align	2
 744              		.globl	_ZdlPv
 746              	_ZdlPv:
 747              	.LFB43:
  84:src/syscall_cpp.cpp **** 
  85:src/syscall_cpp.cpp **** void operator delete(void *p) {
 748              		.loc 2 85 31 is_stmt 1
GAS LISTING /tmp/cckUmUVM.s 			page 17


 749              		.cfi_startproc
 750              	.LVL52:
 751 0360 130101FF 		addi	sp,sp,-16
 752              		.cfi_def_cfa_offset 16
 753 0364 23341100 		sd	ra,8(sp)
 754 0368 23308100 		sd	s0,0(sp)
 755              		.cfi_offset 1, -8
 756              		.cfi_offset 8, -16
 757 036c 13040101 		addi	s0,sp,16
 758              		.cfi_def_cfa 8, 0
  86:src/syscall_cpp.cpp ****     mem_free(p);
 759              		.loc 2 86 5
 760              		.loc 2 86 13 is_stmt 0
 761 0370 97000000 		call	_Z8mem_freePv@plt
 761      E7800000 
 762              	.LVL53:
  87:src/syscall_cpp.cpp **** }
 763              		.loc 2 87 1
 764 0378 83308100 		ld	ra,8(sp)
 765              		.cfi_restore 1
 766 037c 03340100 		ld	s0,0(sp)
 767              		.cfi_restore 8
 768              		.cfi_def_cfa 2, 16
 769 0380 13010101 		addi	sp,sp,16
 770              		.cfi_def_cfa_offset 0
 771 0384 67800000 		jr	ra
 772              		.cfi_endproc
 773              	.LFE43:
 775              		.align	2
 776              		.globl	_ZN6ThreadD0Ev
 778              	_ZN6ThreadD0Ev:
 779              	.LFB16:
  10:src/syscall_cpp.cpp ****     delete myHandle;
 780              		.loc 2 10 1 is_stmt 1
 781              		.cfi_startproc
 782              	.LVL54:
 783 0388 130101FE 		addi	sp,sp,-32
 784              		.cfi_def_cfa_offset 32
 785 038c 233C1100 		sd	ra,24(sp)
 786 0390 23388100 		sd	s0,16(sp)
 787 0394 23349100 		sd	s1,8(sp)
 788              		.cfi_offset 1, -8
 789              		.cfi_offset 8, -16
 790              		.cfi_offset 9, -24
 791 0398 13040102 		addi	s0,sp,32
 792              		.cfi_def_cfa 8, 0
 793 039c 93040500 		mv	s1,a0
  12:src/syscall_cpp.cpp **** 
 794              		.loc 2 12 1 is_stmt 0
 795 03a0 97000000 		call	_ZN6ThreadD1Ev
 795      E7800000 
 796              	.LVL55:
 797 03a8 13850400 		mv	a0,s1
 798 03ac 97000000 		call	_ZdlPv
 798      E7800000 
 799              	.LVL56:
 800 03b4 83308101 		ld	ra,24(sp)
GAS LISTING /tmp/cckUmUVM.s 			page 18


 801              		.cfi_restore 1
 802 03b8 03340101 		ld	s0,16(sp)
 803              		.cfi_restore 8
 804              		.cfi_def_cfa 2, 32
 805 03bc 83348100 		ld	s1,8(sp)
 806              		.cfi_restore 9
 807              	.LVL57:
 808 03c0 13010102 		addi	sp,sp,32
 809              		.cfi_def_cfa_offset 0
 810 03c4 67800000 		jr	ra
 811              		.cfi_endproc
 812              	.LFE16:
 814              		.align	2
 815              		.globl	_ZN9SemaphoreD0Ev
 817              	_ZN9SemaphoreD0Ev:
 818              	.LFB30:
  39:src/syscall_cpp.cpp ****     sem_close(myHandle);
 819              		.loc 2 39 1 is_stmt 1
 820              		.cfi_startproc
 821              	.LVL58:
 822 03c8 130101FE 		addi	sp,sp,-32
 823              		.cfi_def_cfa_offset 32
 824 03cc 233C1100 		sd	ra,24(sp)
 825 03d0 23388100 		sd	s0,16(sp)
 826 03d4 23349100 		sd	s1,8(sp)
 827              		.cfi_offset 1, -8
 828              		.cfi_offset 8, -16
 829              		.cfi_offset 9, -24
 830 03d8 13040102 		addi	s0,sp,32
 831              		.cfi_def_cfa 8, 0
 832 03dc 93040500 		mv	s1,a0
  41:src/syscall_cpp.cpp **** 
 833              		.loc 2 41 1 is_stmt 0
 834 03e0 97000000 		call	_ZN9SemaphoreD1Ev
 834      E7800000 
 835              	.LVL59:
 836 03e8 13850400 		mv	a0,s1
 837 03ec 97000000 		call	_ZdlPv
 837      E7800000 
 838              	.LVL60:
 839 03f4 83308101 		ld	ra,24(sp)
 840              		.cfi_restore 1
 841 03f8 03340101 		ld	s0,16(sp)
 842              		.cfi_restore 8
 843              		.cfi_def_cfa 2, 32
 844 03fc 83348100 		ld	s1,8(sp)
 845              		.cfi_restore 9
 846              	.LVL61:
 847 0400 13010102 		addi	sp,sp,32
 848              		.cfi_def_cfa_offset 0
 849 0404 67800000 		jr	ra
 850              		.cfi_endproc
 851              	.LFE30:
 853              		.section	.text._ZN14PeriodicThreadD0Ev,"axG",@progbits,_ZN14PeriodicThreadD5Ev,comdat
 854              		.align	2
 855              		.weak	_ZN14PeriodicThreadD0Ev
 857              	_ZN14PeriodicThreadD0Ev:
GAS LISTING /tmp/cckUmUVM.s 			page 19


 858              	.LFB47:
  35:src/../h/syscall_cpp.hpp **** protected:
 859              		.loc 1 35 7 is_stmt 1
 860              		.cfi_startproc
 861              	.LVL62:
 862 0000 130101FE 		addi	sp,sp,-32
 863              		.cfi_def_cfa_offset 32
 864 0004 233C1100 		sd	ra,24(sp)
 865 0008 23388100 		sd	s0,16(sp)
 866 000c 23349100 		sd	s1,8(sp)
 867              		.cfi_offset 1, -8
 868              		.cfi_offset 8, -16
 869              		.cfi_offset 9, -24
 870 0010 13040102 		addi	s0,sp,32
 871              		.cfi_def_cfa 8, 0
 872 0014 93040500 		mv	s1,a0
 873              	.LVL63:
 874              	.LBB18:
 875              	.LBB19:
  35:src/../h/syscall_cpp.hpp **** protected:
 876              		.loc 1 35 7 is_stmt 0
 877 0018 97070000 		lla	a5,_ZTV14PeriodicThread+16
 877      93870700 
 878 0020 2330F500 		sd	a5,0(a0)
 879 0024 97000000 		call	_ZN6ThreadD2Ev
 879      E7800000 
 880              	.LVL64:
 881              	.LBE19:
 882              	.LBE18:
 883 002c 13850400 		mv	a0,s1
 884 0030 97000000 		call	_ZdlPv
 884      E7800000 
 885              	.LVL65:
 886 0038 83308101 		ld	ra,24(sp)
 887              		.cfi_restore 1
 888 003c 03340101 		ld	s0,16(sp)
 889              		.cfi_restore 8
 890              		.cfi_def_cfa 2, 32
 891 0040 83348100 		ld	s1,8(sp)
 892              		.cfi_restore 9
 893              	.LVL66:
 894 0044 13010102 		addi	sp,sp,32
 895              		.cfi_def_cfa_offset 0
 896 0048 67800000 		jr	ra
 897              		.cfi_endproc
 898              	.LFE47:
 900              		.weak	_ZTV14PeriodicThread
 901              		.section	.data.rel.ro.local._ZTV14PeriodicThread,"awG",@progbits,_ZTV14PeriodicThread,comdat
 902              		.align	3
 905              	_ZTV14PeriodicThread:
 906 0000 00000000 		.dword	0
 906      00000000 
 907 0008 00000000 		.dword	0
 907      00000000 
 908 0010 00000000 		.dword	_ZN14PeriodicThreadD1Ev
 908      00000000 
 909 0018 00000000 		.dword	_ZN14PeriodicThreadD0Ev
GAS LISTING /tmp/cckUmUVM.s 			page 20


 909      00000000 
 910 0020 00000000 		.dword	_ZN6Thread3runEv
 910      00000000 
 911 0028 00000000 		.dword	_ZN14PeriodicThread18periodicActivationEv
 911      00000000 
 912              		.weak	_ZTV6Thread
 913              		.section	.data.rel.ro.local._ZTV6Thread,"awG",@progbits,_ZTV6Thread,comdat
 914              		.align	3
 917              	_ZTV6Thread:
 918 0000 00000000 		.dword	0
 918      00000000 
 919 0008 00000000 		.dword	0
 919      00000000 
 920 0010 00000000 		.dword	_ZN6ThreadD1Ev
 920      00000000 
 921 0018 00000000 		.dword	_ZN6ThreadD0Ev
 921      00000000 
 922 0020 00000000 		.dword	_ZN6Thread3runEv
 922      00000000 
 923              		.weak	_ZTV9Semaphore
 924              		.section	.data.rel.ro.local._ZTV9Semaphore,"awG",@progbits,_ZTV9Semaphore,comdat
 925              		.align	3
 928              	_ZTV9Semaphore:
 929 0000 00000000 		.dword	0
 929      00000000 
 930 0008 00000000 		.dword	0
 930      00000000 
 931 0010 00000000 		.dword	_ZN9SemaphoreD1Ev
 931      00000000 
 932 0018 00000000 		.dword	_ZN9SemaphoreD0Ev
 932      00000000 
 933              		.text
 934              	.Letext0:
 935              		.file 3 "src/../h/../lib/hw.h"
 936              		.file 4 "src/../h/../h/ThreadK.hpp"
 937              		.file 5 "src/../h/syscall_c.h"
 4940              		.align	3
 4943              	DW.ref.__gxx_personality_v0:
 4944 0000 00000000 		.dword	__gxx_personality_v0
 4944      00000000 
 4945              		.ident	"GCC: (Ubuntu 9.4.0-1ubuntu1~20.04) 9.4.0"
 4946              		.section	.note.GNU-stack,"",@progbits
GAS LISTING /tmp/cckUmUVM.s 			page 21

