GAS LISTING /tmp/ccgo6O8U.s 			page 1


   1              		.file	"ThreadK.cpp"
   2              		.option pic
   3              		.option norelax
   4              		.text
   5              	.Ltext0:
   6              		.align	2
   7              		.globl	_ZN7ThreadK13threadWrapperEv
   9              	_ZN7ThreadK13threadWrapperEv:
  10              	.LFB31:
  11              		.file 1 "src/ThreadK.cpp"
   1:src/ThreadK.cpp **** //
   2:src/ThreadK.cpp **** // Created by os on 5/17/22.
   3:src/ThreadK.cpp **** //
   4:src/ThreadK.cpp **** #define OFFSETOF(TYPE, ELEMENT) ((size_t)&(((TYPE *)0)->ELEMENT))
   5:src/ThreadK.cpp **** #include "../h/ThreadK.hpp"
   6:src/ThreadK.cpp **** #include "../h/Riscv.hpp"
   7:src/ThreadK.cpp **** 
   8:src/ThreadK.cpp **** ThreadK* ThreadK::running = nullptr;
   9:src/ThreadK.cpp **** ThreadK* ThreadK::sleepHead = nullptr;
  10:src/ThreadK.cpp **** ThreadK* ThreadK::finishedHead = nullptr;
  11:src/ThreadK.cpp **** ThreadK* ThreadK::finishedTail = nullptr;
  12:src/ThreadK.cpp **** uint64 ThreadK::timeSliceCounter = 0;
  13:src/ThreadK.cpp **** 
  14:src/ThreadK.cpp **** void ThreadK::yield() {
  15:src/ThreadK.cpp ****     uint64 volatile sepc = Riscv::r_sepc() + 4;
  16:src/ThreadK.cpp ****     uint64 volatile sstatus = Riscv::r_sstatus();
  17:src/ThreadK.cpp ****     ThreadK::timeSliceCounter = 0;
  18:src/ThreadK.cpp ****     ThreadK::dispatch();
  19:src/ThreadK.cpp ****     Riscv::w_sstatus(sstatus);
  20:src/ThreadK.cpp ****     Riscv::w_sepc(sepc);
  21:src/ThreadK.cpp **** }
  22:src/ThreadK.cpp **** 
  23:src/ThreadK.cpp **** void ThreadK::dispatch() {
  24:src/ThreadK.cpp ****     ThreadK* old = running;
  25:src/ThreadK.cpp ****     if(!old->isFinished() && !old->onSleep && old->blockedOnWait == 0){
  26:src/ThreadK.cpp ****         Scheduler::put(old);
  27:src/ThreadK.cpp ****     }
  28:src/ThreadK.cpp ****     running = Scheduler::get();
  29:src/ThreadK.cpp **** 
  30:src/ThreadK.cpp ****     contextSwitch(&old->context, &running->context);
  31:src/ThreadK.cpp **** }
  32:src/ThreadK.cpp **** 
  33:src/ThreadK.cpp **** ThreadK *ThreadK::createThread(Body body, void *arg, uint64 *userStck, bool sysThread, bool createO
  34:src/ThreadK.cpp ****     return new ThreadK(body, arg, userStck, DEFAULT_TIME_SLICE, sysThread, createOnly);
  35:src/ThreadK.cpp **** }
  36:src/ThreadK.cpp **** 
  37:src/ThreadK.cpp **** void *ThreadK::operator new(size_t size) {
  38:src/ThreadK.cpp ****     return MemoryAllocator::kmem_alloc(size);
  39:src/ThreadK.cpp **** }
  40:src/ThreadK.cpp **** 
  41:src/ThreadK.cpp **** 
  42:src/ThreadK.cpp **** void ThreadK::operator delete(void *p) {
  43:src/ThreadK.cpp ****     MemoryAllocator::kmem_free(p);
  44:src/ThreadK.cpp **** }
  45:src/ThreadK.cpp **** 
  46:src/ThreadK.cpp **** void *ThreadK::operator new[](size_t size) {
  47:src/ThreadK.cpp ****     return MemoryAllocator::kmem_alloc(size);
GAS LISTING /tmp/ccgo6O8U.s 			page 2


  48:src/ThreadK.cpp **** }
  49:src/ThreadK.cpp **** 
  50:src/ThreadK.cpp **** 
  51:src/ThreadK.cpp **** void ThreadK::operator delete[](void *p) {
  52:src/ThreadK.cpp ****     MemoryAllocator::kmem_free(p);
  53:src/ThreadK.cpp **** }
  54:src/ThreadK.cpp **** 
  55:src/ThreadK.cpp **** void ThreadK::threadWrapper() {
  12              		.loc 1 55 31
  13              		.cfi_startproc
  14 0000 130101FF 		addi	sp,sp,-16
  15              		.cfi_def_cfa_offset 16
  16 0004 23341100 		sd	ra,8(sp)
  17 0008 23308100 		sd	s0,0(sp)
  18              		.cfi_offset 1, -8
  19              		.cfi_offset 8, -16
  20 000c 13040101 		addi	s0,sp,16
  21              		.cfi_def_cfa 8, 0
  56:src/ThreadK.cpp ****     Riscv::popSppSpie();
  22              		.loc 1 56 5
  23              		.loc 1 56 22 is_stmt 0
  24 0010 97000000 		call	_ZN5Riscv10popSppSpieEv@plt
  24      E7800000 
  25              	.LVL0:
  57:src/ThreadK.cpp ****     running->body(running->arguments);
  26              		.loc 1 57 5 is_stmt 1
  27              		.loc 1 57 14 is_stmt 0
  28 0018 97070000 		ld	a5,.LANCHOR0
  28      83B70700 
  29 0020 03B70700 		ld	a4,0(a5)
  30              		.loc 1 57 18
  31 0024 03B58703 		ld	a0,56(a5)
  32 0028 E7000700 		jalr	a4
  33              	.LVL1:
  58:src/ThreadK.cpp ****     thread_exit();
  34              		.loc 1 58 5 is_stmt 1
  35              		.loc 1 58 16 is_stmt 0
  36 002c 97000000 		call	_Z11thread_exitv@plt
  36      E7800000 
  37              	.LVL2:
  59:src/ThreadK.cpp **** }
  38              		.loc 1 59 1
  39 0034 83308100 		ld	ra,8(sp)
  40              		.cfi_restore 1
  41 0038 03340100 		ld	s0,0(sp)
  42              		.cfi_restore 8
  43              		.cfi_def_cfa 2, 16
  44 003c 13010101 		addi	sp,sp,16
  45              		.cfi_def_cfa_offset 0
  46 0040 67800000 		jr	ra
  47              		.cfi_endproc
  48              	.LFE31:
  50              		.align	2
  51              		.globl	_ZN7ThreadK8dispatchEv
  53              	_ZN7ThreadK8dispatchEv:
  54              	.LFB25:
  23:src/ThreadK.cpp ****     ThreadK* old = running;
GAS LISTING /tmp/ccgo6O8U.s 			page 3


  55              		.loc 1 23 26 is_stmt 1
  56              		.cfi_startproc
  57 0044 130101FE 		addi	sp,sp,-32
  58              		.cfi_def_cfa_offset 32
  59 0048 233C1100 		sd	ra,24(sp)
  60 004c 23388100 		sd	s0,16(sp)
  61 0050 23349100 		sd	s1,8(sp)
  62              		.cfi_offset 1, -8
  63              		.cfi_offset 8, -16
  64              		.cfi_offset 9, -24
  65 0054 13040102 		addi	s0,sp,32
  66              		.cfi_def_cfa 8, 0
  24:src/ThreadK.cpp ****     if(!old->isFinished() && !old->onSleep && old->blockedOnWait == 0){
  67              		.loc 1 24 5
  24:src/ThreadK.cpp ****     if(!old->isFinished() && !old->onSleep && old->blockedOnWait == 0){
  68              		.loc 1 24 14 is_stmt 0
  69 0058 97040000 		ld	s1,.LANCHOR0
  69      83B40400 
  70              	.LVL3:
  25:src/ThreadK.cpp ****         Scheduler::put(old);
  71              		.loc 1 25 5 is_stmt 1
  72              	.LBB20:
  73              	.LBB21:
  74              		.file 2 "src/../h/ThreadK.hpp"
   1:src/../h/ThreadK.hpp **** //
   2:src/../h/ThreadK.hpp **** // Created by os on 5/17/22.
   3:src/../h/ThreadK.hpp **** //
   4:src/../h/ThreadK.hpp **** 
   5:src/../h/ThreadK.hpp **** #ifndef PROJECT_BASE_V1_0_THREAD_HPP
   6:src/../h/ThreadK.hpp **** #define PROJECT_BASE_V1_0_THREAD_HPP
   7:src/../h/ThreadK.hpp **** 
   8:src/../h/ThreadK.hpp **** #include "../lib/hw.h"
   9:src/../h/ThreadK.hpp **** #include "../h/Scheduler.hpp"
  10:src/../h/ThreadK.hpp **** #include "../h/MemoryAllocator.hpp"
  11:src/../h/ThreadK.hpp **** #include "../h/syscall_c.h"
  12:src/../h/ThreadK.hpp **** #include "../h/SemaphoreK.hpp"
  13:src/../h/ThreadK.hpp **** 
  14:src/../h/ThreadK.hpp **** class ThreadK {
  15:src/../h/ThreadK.hpp **** public:
  16:src/../h/ThreadK.hpp ****     friend class Scheduler;
  17:src/../h/ThreadK.hpp ****     friend class Riscv;
  18:src/../h/ThreadK.hpp ****     friend class SemaphoreK;
  19:src/../h/ThreadK.hpp ****     using Body = void (*)(void*);
  20:src/../h/ThreadK.hpp ****     ~ThreadK();
  21:src/../h/ThreadK.hpp ****     static ThreadK *createThread(Body body, void *arg, uint64 *userStck, bool sysThread, bool creat
  22:src/../h/ThreadK.hpp **** 
  23:src/../h/ThreadK.hpp ****     bool isFinished() const {
  24:src/../h/ThreadK.hpp ****         return finished;
  75              		.loc 2 24 9
  76              		.loc 2 24 16 is_stmt 0
  77 0060 83C78401 		lbu	a5,24(s1)
  78              	.LVL4:
  79              	.LBE21:
  80              	.LBE20:
  25:src/ThreadK.cpp ****         Scheduler::put(old);
  81              		.loc 1 25 44
  82 0064 639A0700 		bnez	a5,.L4
GAS LISTING /tmp/ccgo6O8U.s 			page 4


  25:src/ThreadK.cpp ****         Scheduler::put(old);
  83              		.loc 1 25 36 discriminator 1
  84 0068 83C72407 		lbu	a5,114(s1)
  25:src/ThreadK.cpp ****         Scheduler::put(old);
  85              		.loc 1 25 27 discriminator 1
  86 006c 63960700 		bnez	a5,.L4
  25:src/ThreadK.cpp ****         Scheduler::put(old);
  87              		.loc 1 25 52 discriminator 3
  88 0070 83C70407 		lbu	a5,112(s1)
  25:src/ThreadK.cpp ****         Scheduler::put(old);
  89              		.loc 1 25 44 discriminator 3
  90 0074 638C0702 		beqz	a5,.L6
  91              	.L4:
  28:src/ThreadK.cpp **** 
  92              		.loc 1 28 5 is_stmt 1
  28:src/ThreadK.cpp **** 
  93              		.loc 1 28 29 is_stmt 0
  94 0078 97000000 		call	_ZN9Scheduler3getEv@plt
  94      E7800000 
  95              	.LVL5:
  28:src/ThreadK.cpp **** 
  96              		.loc 1 28 13
  97 0080 97070000 		sd	a0,.LANCHOR0,a5
  97      23B0A700 
  30:src/ThreadK.cpp **** }
  98              		.loc 1 30 5 is_stmt 1
  30:src/ThreadK.cpp **** }
  99              		.loc 1 30 18 is_stmt 0
 100 0088 93058500 		addi	a1,a0,8
 101 008c 13858400 		addi	a0,s1,8
 102 0090 97000000 		call	_ZN7ThreadK13contextSwitchEPNS_7ContextES1_@plt
 102      E7800000 
 103              	.LVL6:
  31:src/ThreadK.cpp **** 
 104              		.loc 1 31 1
 105 0098 83308101 		ld	ra,24(sp)
 106              		.cfi_remember_state
 107              		.cfi_restore 1
 108 009c 03340101 		ld	s0,16(sp)
 109              		.cfi_restore 8
 110              		.cfi_def_cfa 2, 32
 111 00a0 83348100 		ld	s1,8(sp)
 112              		.cfi_restore 9
 113              	.LVL7:
 114 00a4 13010102 		addi	sp,sp,32
 115              		.cfi_def_cfa_offset 0
 116 00a8 67800000 		jr	ra
 117              	.LVL8:
 118              	.L6:
 119              		.cfi_restore_state
  26:src/ThreadK.cpp ****     }
 120              		.loc 1 26 9 is_stmt 1
  26:src/ThreadK.cpp ****     }
 121              		.loc 1 26 23 is_stmt 0
 122 00ac 13850400 		mv	a0,s1
 123 00b0 97000000 		call	_ZN9Scheduler3putEP7ThreadK@plt
 123      E7800000 
GAS LISTING /tmp/ccgo6O8U.s 			page 5


 124              	.LVL9:
 125 00b8 6FF01FFC 		j	.L4
 126              		.cfi_endproc
 127              	.LFE25:
 129              		.align	2
 130              		.globl	_ZN7ThreadK5yieldEv
 132              	_ZN7ThreadK5yieldEv:
 133              	.LFB24:
  14:src/ThreadK.cpp ****     uint64 volatile sepc = Riscv::r_sepc() + 4;
 134              		.loc 1 14 23 is_stmt 1
 135              		.cfi_startproc
 136 00bc 130101FD 		addi	sp,sp,-48
 137              		.cfi_def_cfa_offset 48
 138 00c0 23341102 		sd	ra,40(sp)
 139 00c4 23308102 		sd	s0,32(sp)
 140              		.cfi_offset 1, -8
 141              		.cfi_offset 8, -16
 142 00c8 13040103 		addi	s0,sp,48
 143              		.cfi_def_cfa 8, 0
  15:src/ThreadK.cpp ****     uint64 volatile sstatus = Riscv::r_sstatus();
 144              		.loc 1 15 5
 145              	.LBB22:
 146              	.LBB23:
 147              		.file 3 "src/../h/Riscv.hpp"
   1:src/../h/Riscv.hpp **** //
   2:src/../h/Riscv.hpp **** // Created by os on 5/15/22.
   3:src/../h/Riscv.hpp **** //
   4:src/../h/Riscv.hpp **** 
   5:src/../h/Riscv.hpp **** #ifndef PROJECT_BASE_V1_0_RISCV_HPP
   6:src/../h/Riscv.hpp **** #define PROJECT_BASE_V1_0_RISCV_HPP
   7:src/../h/Riscv.hpp **** 
   8:src/../h/Riscv.hpp **** #include "../lib/hw.h"
   9:src/../h/Riscv.hpp **** #include "../test/printing.hpp"
  10:src/../h/Riscv.hpp **** 
  11:src/../h/Riscv.hpp **** 
  12:src/../h/Riscv.hpp **** class Riscv {
  13:src/../h/Riscv.hpp **** public:
  14:src/../h/Riscv.hpp ****     static void* supervisorTrap();
  15:src/../h/Riscv.hpp **** 
  16:src/../h/Riscv.hpp ****     static void pushRegisters();
  17:src/../h/Riscv.hpp **** 
  18:src/../h/Riscv.hpp ****     static void popRegisters();
  19:src/../h/Riscv.hpp **** 
  20:src/../h/Riscv.hpp ****     static void popSppSpie();//ne sme biti inline funkcija
  21:src/../h/Riscv.hpp **** 
  22:src/../h/Riscv.hpp ****     //Functions to read and write to system registers
  23:src/../h/Riscv.hpp ****     static uint64 r_scause();
  24:src/../h/Riscv.hpp **** 
  25:src/../h/Riscv.hpp ****     void w_scause(uint64 sepc);
  26:src/../h/Riscv.hpp **** 
  27:src/../h/Riscv.hpp ****     static uint64 r_sstatus();
  28:src/../h/Riscv.hpp **** 
  29:src/../h/Riscv.hpp ****     static void w_sstatus(uint64 sstatus);
  30:src/../h/Riscv.hpp **** 
  31:src/../h/Riscv.hpp ****     static uint64 r_sepc();
  32:src/../h/Riscv.hpp **** 
  33:src/../h/Riscv.hpp ****     static void w_sepc(uint64 sepc);
GAS LISTING /tmp/ccgo6O8U.s 			page 6


  34:src/../h/Riscv.hpp **** 
  35:src/../h/Riscv.hpp ****     static uint64 r_stvec();
  36:src/../h/Riscv.hpp **** 
  37:src/../h/Riscv.hpp ****     static void w_stvec(uint64 sepc);
  38:src/../h/Riscv.hpp **** 
  39:src/../h/Riscv.hpp ****     static uint64 r_stval();
  40:src/../h/Riscv.hpp **** 
  41:src/../h/Riscv.hpp ****     static void w_stval(uint64 sepc);
  42:src/../h/Riscv.hpp **** 
  43:src/../h/Riscv.hpp ****     enum BitMaskSip{
  44:src/../h/Riscv.hpp ****         SIP_SSIP = (1 << 1),
  45:src/../h/Riscv.hpp ****         SIP_STIP = (1 << 5),
  46:src/../h/Riscv.hpp ****         SIP_SEIP = (1 << 9)
  47:src/../h/Riscv.hpp ****     };
  48:src/../h/Riscv.hpp **** 
  49:src/../h/Riscv.hpp ****     static void ms_sip(uint64 sepc);
  50:src/../h/Riscv.hpp **** 
  51:src/../h/Riscv.hpp ****     static void mc_sip(uint64 sepc);
  52:src/../h/Riscv.hpp **** 
  53:src/../h/Riscv.hpp ****     enum BitMaskSstatus{
  54:src/../h/Riscv.hpp ****         SSTATUS_SIE = (1 << 1),
  55:src/../h/Riscv.hpp ****         SSTATUS_SPIE = (1 << 5),
  56:src/../h/Riscv.hpp ****         SSTATUS_SPP = (1 << 8)
  57:src/../h/Riscv.hpp ****     };
  58:src/../h/Riscv.hpp **** 
  59:src/../h/Riscv.hpp ****     static void ms_sie(uint64 sepc);
  60:src/../h/Riscv.hpp **** 
  61:src/../h/Riscv.hpp ****     static void mc_sie(uint64 sepc);
  62:src/../h/Riscv.hpp **** 
  63:src/../h/Riscv.hpp ****     static void ms_sstatus(uint64 sepc);
  64:src/../h/Riscv.hpp **** 
  65:src/../h/Riscv.hpp ****     static void mc_sstatus(uint64 sepc);
  66:src/../h/Riscv.hpp **** 
  67:src/../h/Riscv.hpp ****     static uint64 r_sip();
  68:src/../h/Riscv.hpp **** 
  69:src/../h/Riscv.hpp ****     static void w_sip(uint64 sepc);
  70:src/../h/Riscv.hpp **** 
  71:src/../h/Riscv.hpp **** private:
  72:src/../h/Riscv.hpp ****     static void handleTrap(int,void*);
  73:src/../h/Riscv.hpp **** };
  74:src/../h/Riscv.hpp **** inline uint64 Riscv::r_scause() {
  75:src/../h/Riscv.hpp ****     uint64 volatile scause;
  76:src/../h/Riscv.hpp ****     __asm__ volatile ("csrr %[scause], scause" :  [scause] "=r" (scause));
  77:src/../h/Riscv.hpp ****     return scause;
  78:src/../h/Riscv.hpp **** }
  79:src/../h/Riscv.hpp **** 
  80:src/../h/Riscv.hpp **** inline void Riscv::w_scause(uint64 scause){
  81:src/../h/Riscv.hpp ****     __asm__ volatile("csrw scause, %[scause]": : [scause] "r" (scause));
  82:src/../h/Riscv.hpp **** }
  83:src/../h/Riscv.hpp **** 
  84:src/../h/Riscv.hpp **** inline uint64 Riscv::r_sepc() {
  85:src/../h/Riscv.hpp ****     uint64 volatile sepc;
 148              		.loc 3 85 5
  86:src/../h/Riscv.hpp ****     __asm__ volatile ("csrr %[sepc], sepc" :  [sepc] "=r" (sepc));
 149              		.loc 3 86 5
 150              		.loc 3 86 66 is_stmt 0
 151              	#APP
GAS LISTING /tmp/ccgo6O8U.s 			page 7


 152              	# 86 "src/../h/Riscv.hpp" 1
  87              	    return sepc;
 153              		csrr a5, sepc
 154              	# 0 "" 2
 155              	#NO_APP
 156 00d0 233CF4FC 		sd	a5,-40(s0)
 157              		.loc 3 87 5 is_stmt 1
 158              		.loc 3 87 12 is_stmt 0
 159 00d4 833784FD 		ld	a5,-40(s0)
 160              	.LBE23:
 161              	.LBE22:
  15:src/ThreadK.cpp ****     uint64 volatile sstatus = Riscv::r_sstatus();
 162              		.loc 1 15 44
 163 00d8 93874700 		addi	a5,a5,4
  15:src/ThreadK.cpp ****     uint64 volatile sstatus = Riscv::r_sstatus();
 164              		.loc 1 15 46
 165 00dc 2334F4FE 		sd	a5,-24(s0)
  16:src/ThreadK.cpp ****     ThreadK::timeSliceCounter = 0;
 166              		.loc 1 16 5 is_stmt 1
 167              	.LBB24:
 168              	.LBB25:
  88:src/../h/Riscv.hpp **** }
  89:src/../h/Riscv.hpp **** 
  90:src/../h/Riscv.hpp **** inline void Riscv::w_sepc(uint64 sepc){
  91:src/../h/Riscv.hpp ****     __asm__ volatile("csrw sepc, %[sepc]": : [sepc] "r" (sepc));
  92:src/../h/Riscv.hpp **** }
  93:src/../h/Riscv.hpp **** 
  94:src/../h/Riscv.hpp **** inline uint64 Riscv::r_stvec() {
  95:src/../h/Riscv.hpp ****     uint64 volatile stvec;
  96:src/../h/Riscv.hpp ****     __asm__ volatile ("csrr %[stvec], stvec" :  [stvec] "=r" (stvec));
  97:src/../h/Riscv.hpp ****     return stvec;
  98:src/../h/Riscv.hpp **** }
  99:src/../h/Riscv.hpp **** 
 100:src/../h/Riscv.hpp **** inline void Riscv::w_stvec(uint64 stvec){
 101:src/../h/Riscv.hpp ****     __asm__ volatile("csrw stvec, %[stvec]": : [stvec] "r" (stvec));
 102:src/../h/Riscv.hpp **** }
 103:src/../h/Riscv.hpp **** 
 104:src/../h/Riscv.hpp **** inline uint64 Riscv::r_stval() {
 105:src/../h/Riscv.hpp ****     uint64 volatile stval;
 106:src/../h/Riscv.hpp ****     __asm__ volatile ("csrr %[stval], stval" :  [stval] "=r" (stval));
 107:src/../h/Riscv.hpp ****     return stval;
 108:src/../h/Riscv.hpp **** }
 109:src/../h/Riscv.hpp **** 
 110:src/../h/Riscv.hpp **** inline void Riscv::w_stval(uint64 stval){
 111:src/../h/Riscv.hpp ****     __asm__ volatile("csrw stval, %[stval]": : [stval] "r" (stval));
 112:src/../h/Riscv.hpp **** }
 113:src/../h/Riscv.hpp **** 
 114:src/../h/Riscv.hpp **** inline void Riscv::ms_sip(uint64 mask) {
 115:src/../h/Riscv.hpp ****     __asm__ volatile("csrs sip, %[mask]" : : [mask] "r" (mask));
 116:src/../h/Riscv.hpp **** }
 117:src/../h/Riscv.hpp **** 
 118:src/../h/Riscv.hpp **** inline void Riscv::mc_sip(uint64 mask) {
 119:src/../h/Riscv.hpp ****     __asm__ volatile("csrc sip, %[mask]" : : [mask] "r" (mask));
 120:src/../h/Riscv.hpp **** }
 121:src/../h/Riscv.hpp **** 
 122:src/../h/Riscv.hpp **** inline uint64 Riscv::r_sstatus() {
 123:src/../h/Riscv.hpp ****     uint64 volatile sstatus;
GAS LISTING /tmp/ccgo6O8U.s 			page 8


 169              		.loc 3 123 5
 124:src/../h/Riscv.hpp ****     __asm__ volatile ("csrr %[sstatus], sstatus" :  [sstatus] "=r" (sstatus));
 170              		.loc 3 124 5
 171              		.loc 3 124 78 is_stmt 0
 172              	#APP
 173              	# 124 "src/../h/Riscv.hpp" 1
 125              	    return sstatus;
 174              		csrr a5, sstatus
 175              	# 0 "" 2
 176              	#NO_APP
 177 00e4 2338F4FC 		sd	a5,-48(s0)
 178              		.loc 3 125 5 is_stmt 1
 179              		.loc 3 125 12 is_stmt 0
 180 00e8 833704FD 		ld	a5,-48(s0)
 181              	.LBE25:
 182              	.LBE24:
  16:src/ThreadK.cpp ****     ThreadK::timeSliceCounter = 0;
 183              		.loc 1 16 48
 184 00ec 2330F4FE 		sd	a5,-32(s0)
  17:src/ThreadK.cpp ****     ThreadK::dispatch();
 185              		.loc 1 17 5 is_stmt 1
  17:src/ThreadK.cpp ****     ThreadK::dispatch();
 186              		.loc 1 17 31 is_stmt 0
 187 00f0 97070000 		sd	zero,.LANCHOR0+8,a5
 187      23B00700 
  18:src/ThreadK.cpp ****     Riscv::w_sstatus(sstatus);
 188              		.loc 1 18 5 is_stmt 1
  18:src/ThreadK.cpp ****     Riscv::w_sstatus(sstatus);
 189              		.loc 1 18 22 is_stmt 0
 190 00f8 97000000 		call	_ZN7ThreadK8dispatchEv
 190      E7800000 
 191              	.LVL10:
  19:src/ThreadK.cpp ****     Riscv::w_sepc(sepc);
 192              		.loc 1 19 5 is_stmt 1
  19:src/ThreadK.cpp ****     Riscv::w_sepc(sepc);
 193              		.loc 1 19 21 is_stmt 0
 194 0100 833704FE 		ld	a5,-32(s0)
 195              	.LVL11:
 196              	.LBB26:
 197              	.LBB27:
 126:src/../h/Riscv.hpp **** }
 127:src/../h/Riscv.hpp **** 
 128:src/../h/Riscv.hpp **** inline void Riscv::w_sstatus(uint64 sstatus) {
 129:src/../h/Riscv.hpp ****     __asm__ volatile("csrw sstatus, %[sstatus]": : [sstatus] "r" (sstatus));
 198              		.loc 3 129 5 is_stmt 1
 199              		.loc 3 129 76 is_stmt 0
 200              	#APP
 201              	# 129 "src/../h/Riscv.hpp" 1
 130              	}
 202              		csrw sstatus, a5
 203              	# 0 "" 2
 204              	.LVL12:
 205              	#NO_APP
 206              	.LBE27:
 207              	.LBE26:
  20:src/ThreadK.cpp **** }
 208              		.loc 1 20 5 is_stmt 1
GAS LISTING /tmp/ccgo6O8U.s 			page 9


  20:src/ThreadK.cpp **** }
 209              		.loc 1 20 18 is_stmt 0
 210 0108 833784FE 		ld	a5,-24(s0)
 211              	.LVL13:
 212              	.LBB28:
 213              	.LBB29:
  91:src/../h/Riscv.hpp **** }
 214              		.loc 3 91 5 is_stmt 1
  91:src/../h/Riscv.hpp **** }
 215              		.loc 3 91 64 is_stmt 0
 216              	#APP
 217              	# 91 "src/../h/Riscv.hpp" 1
 218              		csrw sepc, a5
 219              	# 0 "" 2
 220              	.LVL14:
 221              	#NO_APP
 222              	.LBE29:
 223              	.LBE28:
  21:src/ThreadK.cpp **** 
 224              		.loc 1 21 1
 225 0110 83308102 		ld	ra,40(sp)
 226              		.cfi_restore 1
 227 0114 03340102 		ld	s0,32(sp)
 228              		.cfi_restore 8
 229              		.cfi_def_cfa 2, 48
 230 0118 13010103 		addi	sp,sp,48
 231              		.cfi_def_cfa_offset 0
 232 011c 67800000 		jr	ra
 233              		.cfi_endproc
 234              	.LFE24:
 236              		.align	2
 237              		.globl	_ZN7ThreadKnwEm
 239              	_ZN7ThreadKnwEm:
 240              	.LFB27:
  37:src/ThreadK.cpp ****     return MemoryAllocator::kmem_alloc(size);
 241              		.loc 1 37 42 is_stmt 1
 242              		.cfi_startproc
 243              	.LVL15:
 244 0120 130101FF 		addi	sp,sp,-16
 245              		.cfi_def_cfa_offset 16
 246 0124 23341100 		sd	ra,8(sp)
 247 0128 23308100 		sd	s0,0(sp)
 248              		.cfi_offset 1, -8
 249              		.cfi_offset 8, -16
 250 012c 13040101 		addi	s0,sp,16
 251              		.cfi_def_cfa 8, 0
  38:src/ThreadK.cpp **** }
 252              		.loc 1 38 5
  38:src/ThreadK.cpp **** }
 253              		.loc 1 38 39 is_stmt 0
 254 0130 97000000 		call	_ZN15MemoryAllocator10kmem_allocEm@plt
 254      E7800000 
 255              	.LVL16:
  39:src/ThreadK.cpp **** 
 256              		.loc 1 39 1
 257 0138 83308100 		ld	ra,8(sp)
 258              		.cfi_restore 1
GAS LISTING /tmp/ccgo6O8U.s 			page 10


 259 013c 03340100 		ld	s0,0(sp)
 260              		.cfi_restore 8
 261              		.cfi_def_cfa 2, 16
 262 0140 13010101 		addi	sp,sp,16
 263              		.cfi_def_cfa_offset 0
 264 0144 67800000 		jr	ra
 265              		.cfi_endproc
 266              	.LFE27:
 268              		.align	2
 269              		.globl	_ZN7ThreadKdlEPv
 271              	_ZN7ThreadKdlEPv:
 272              	.LFB28:
  42:src/ThreadK.cpp ****     MemoryAllocator::kmem_free(p);
 273              		.loc 1 42 40 is_stmt 1
 274              		.cfi_startproc
 275              	.LVL17:
 276 0148 130101FF 		addi	sp,sp,-16
 277              		.cfi_def_cfa_offset 16
 278 014c 23341100 		sd	ra,8(sp)
 279 0150 23308100 		sd	s0,0(sp)
 280              		.cfi_offset 1, -8
 281              		.cfi_offset 8, -16
 282 0154 13040101 		addi	s0,sp,16
 283              		.cfi_def_cfa 8, 0
  43:src/ThreadK.cpp **** }
 284              		.loc 1 43 5
  43:src/ThreadK.cpp **** }
 285              		.loc 1 43 31 is_stmt 0
 286 0158 97000000 		call	_ZN15MemoryAllocator9kmem_freeEPv@plt
 286      E7800000 
 287              	.LVL18:
  44:src/ThreadK.cpp **** 
 288              		.loc 1 44 1
 289 0160 83308100 		ld	ra,8(sp)
 290              		.cfi_restore 1
 291 0164 03340100 		ld	s0,0(sp)
 292              		.cfi_restore 8
 293              		.cfi_def_cfa 2, 16
 294 0168 13010101 		addi	sp,sp,16
 295              		.cfi_def_cfa_offset 0
 296 016c 67800000 		jr	ra
 297              		.cfi_endproc
 298              	.LFE28:
 300              		.align	2
 301              		.globl	_ZN7ThreadKnaEm
 303              	_ZN7ThreadKnaEm:
 304              	.LFB29:
  46:src/ThreadK.cpp ****     return MemoryAllocator::kmem_alloc(size);
 305              		.loc 1 46 44 is_stmt 1
 306              		.cfi_startproc
 307              	.LVL19:
 308 0170 130101FF 		addi	sp,sp,-16
 309              		.cfi_def_cfa_offset 16
 310 0174 23341100 		sd	ra,8(sp)
 311 0178 23308100 		sd	s0,0(sp)
 312              		.cfi_offset 1, -8
 313              		.cfi_offset 8, -16
GAS LISTING /tmp/ccgo6O8U.s 			page 11


 314 017c 13040101 		addi	s0,sp,16
 315              		.cfi_def_cfa 8, 0
  47:src/ThreadK.cpp **** }
 316              		.loc 1 47 5
  47:src/ThreadK.cpp **** }
 317              		.loc 1 47 39 is_stmt 0
 318 0180 97000000 		call	_ZN15MemoryAllocator10kmem_allocEm@plt
 318      E7800000 
 319              	.LVL20:
  48:src/ThreadK.cpp **** 
 320              		.loc 1 48 1
 321 0188 83308100 		ld	ra,8(sp)
 322              		.cfi_restore 1
 323 018c 03340100 		ld	s0,0(sp)
 324              		.cfi_restore 8
 325              		.cfi_def_cfa 2, 16
 326 0190 13010101 		addi	sp,sp,16
 327              		.cfi_def_cfa_offset 0
 328 0194 67800000 		jr	ra
 329              		.cfi_endproc
 330              	.LFE29:
 332              		.align	2
 333              		.globl	_ZN7ThreadKdaEPv
 335              	_ZN7ThreadKdaEPv:
 336              	.LFB30:
  51:src/ThreadK.cpp ****     MemoryAllocator::kmem_free(p);
 337              		.loc 1 51 42 is_stmt 1
 338              		.cfi_startproc
 339              	.LVL21:
 340 0198 130101FF 		addi	sp,sp,-16
 341              		.cfi_def_cfa_offset 16
 342 019c 23341100 		sd	ra,8(sp)
 343 01a0 23308100 		sd	s0,0(sp)
 344              		.cfi_offset 1, -8
 345              		.cfi_offset 8, -16
 346 01a4 13040101 		addi	s0,sp,16
 347              		.cfi_def_cfa 8, 0
  52:src/ThreadK.cpp **** }
 348              		.loc 1 52 5
  52:src/ThreadK.cpp **** }
 349              		.loc 1 52 31 is_stmt 0
 350 01a8 97000000 		call	_ZN15MemoryAllocator9kmem_freeEPv@plt
 350      E7800000 
 351              	.LVL22:
  53:src/ThreadK.cpp **** 
 352              		.loc 1 53 1
 353 01b0 83308100 		ld	ra,8(sp)
 354              		.cfi_restore 1
 355 01b4 03340100 		ld	s0,0(sp)
 356              		.cfi_restore 8
 357              		.cfi_def_cfa 2, 16
 358 01b8 13010101 		addi	sp,sp,16
 359              		.cfi_def_cfa_offset 0
 360 01bc 67800000 		jr	ra
 361              		.cfi_endproc
 362              	.LFE30:
 364              		.align	2
GAS LISTING /tmp/ccgo6O8U.s 			page 12


 365              		.globl	_ZN7ThreadK10putToSleepEm
 367              	_ZN7ThreadK10putToSleepEm:
 368              	.LFB32:
  60:src/ThreadK.cpp **** 
  61:src/ThreadK.cpp **** void ThreadK::putToSleep(uint64 time) {
 369              		.loc 1 61 39 is_stmt 1
 370              		.cfi_startproc
 371              	.LVL23:
 372 01c0 130101FF 		addi	sp,sp,-16
 373              		.cfi_def_cfa_offset 16
 374 01c4 23348100 		sd	s0,8(sp)
 375              		.cfi_offset 8, -8
 376 01c8 13040101 		addi	s0,sp,16
 377              		.cfi_def_cfa 8, 0
  62:src/ThreadK.cpp ****     running->onSleep = true;
 378              		.loc 1 62 5
 379              		.loc 1 62 14 is_stmt 0
 380 01cc 97070000 		lla	a5,.LANCHOR0
 380      93870700 
 381 01d4 03B60700 		ld	a2,0(a5)
 382              		.loc 1 62 22
 383 01d8 13071000 		li	a4,1
 384 01dc 2309E606 		sb	a4,114(a2)
  63:src/ThreadK.cpp ****     if(!sleepHead){
 385              		.loc 1 63 5 is_stmt 1
 386              	.LBB30:
 387              		.loc 1 63 8 is_stmt 0
 388 01e0 83B70701 		ld	a5,16(a5)
 389              		.loc 1 63 5
 390 01e4 638E0702 		beqz	a5,.L25
 391              	.LBB31:
  64:src/ThreadK.cpp ****         running->sleepTime = time;
  65:src/ThreadK.cpp ****         running->prevThread = nullptr;
  66:src/ThreadK.cpp ****         running->nextThread = nullptr;
  67:src/ThreadK.cpp ****         sleepHead = running;
  68:src/ThreadK.cpp ****     }
  69:src/ThreadK.cpp ****     else{
  70:src/ThreadK.cpp ****         //slozeno umetanje u listu prema vremenu budjenja
  71:src/ThreadK.cpp ****         uint64 firstST = sleepHead->sleepTime;
 392              		.loc 1 71 9 is_stmt 1
 393              		.loc 1 71 16 is_stmt 0
 394 01e8 83B68706 		ld	a3,104(a5)
 395              	.LVL24:
  72:src/ThreadK.cpp ****         //insert first in list
  73:src/ThreadK.cpp ****         if(time < firstST){
 396              		.loc 1 73 9 is_stmt 1
 397              	.LBB32:
 398 01ec 6378D504 		bleu	a3,a0,.L20
  74:src/ThreadK.cpp ****             running->sleepTime = time;
 399              		.loc 1 74 13
 400              		.loc 1 74 32 is_stmt 0
 401 01f0 2334A606 		sd	a0,104(a2)
  75:src/ThreadK.cpp ****             sleepHead->sleepTime = sleepHead->sleepTime - time;
 402              		.loc 1 75 13 is_stmt 1
 403              		.loc 1 75 47 is_stmt 0
 404 01f4 03B78706 		ld	a4,104(a5)
 405              		.loc 1 75 57
GAS LISTING /tmp/ccgo6O8U.s 			page 13


 406 01f8 3305A740 		sub	a0,a4,a0
 407              	.LVL25:
 408              		.loc 1 75 34
 409 01fc 23B4A706 		sd	a0,104(a5)
 410              	.LVL26:
  76:src/ThreadK.cpp ****             running->nextThread = sleepHead;
 411              		.loc 1 76 13 is_stmt 1
 412              		.loc 1 76 33 is_stmt 0
 413 0200 2330F602 		sd	a5,32(a2)
  77:src/ThreadK.cpp ****             running->prevThread = nullptr;
 414              		.loc 1 77 13 is_stmt 1
 415              		.loc 1 77 33 is_stmt 0
 416 0204 23340602 		sd	zero,40(a2)
  78:src/ThreadK.cpp ****             sleepHead->prevThread = running;
 417              		.loc 1 78 13 is_stmt 1
 418              		.loc 1 78 35 is_stmt 0
 419 0208 23B4C702 		sd	a2,40(a5)
  79:src/ThreadK.cpp ****             sleepHead = running;
 420              		.loc 1 79 13 is_stmt 1
 421              		.loc 1 79 23 is_stmt 0
 422 020c 97070000 		sd	a2,.LANCHOR0+16,a5
 422      23B0C700 
 423              	.LVL27:
 424              	.L17:
 425              	.LBE32:
 426              	.LBE31:
 427              	.LBE30:
  80:src/ThreadK.cpp ****         }
  81:src/ThreadK.cpp ****         else {
  82:src/ThreadK.cpp ****             ThreadK* tmp = sleepHead;
  83:src/ThreadK.cpp ****             uint64 timeOfSleepTmp = sleepHead->sleepTime;
  84:src/ThreadK.cpp ****             while (tmp->nextThread && tmp->nextThread->sleepTime + timeOfSleepTmp <= time) {
  85:src/ThreadK.cpp ****                 tmp = tmp->nextThread;
  86:src/ThreadK.cpp ****                 timeOfSleepTmp += tmp->sleepTime;
  87:src/ThreadK.cpp ****             }
  88:src/ThreadK.cpp ****             //posle tmp ulancavam moju nit sa svojim sleepTIme
  89:src/ThreadK.cpp ****             running->nextThread = tmp->nextThread;
  90:src/ThreadK.cpp ****             if(running->nextThread) running->nextThread->prevThread = running;
  91:src/ThreadK.cpp ****             tmp->nextThread = running;
  92:src/ThreadK.cpp ****             running->prevThread = tmp;
  93:src/ThreadK.cpp ****             running->sleepTime = time - timeOfSleepTmp;
  94:src/ThreadK.cpp ****         }
  95:src/ThreadK.cpp ****     }
  96:src/ThreadK.cpp ****     //after this i got dispatch
  97:src/ThreadK.cpp **** }
 428              		.loc 1 97 1
 429 0214 03348100 		ld	s0,8(sp)
 430              		.cfi_remember_state
 431              		.cfi_restore 8
 432              		.cfi_def_cfa 2, 16
 433 0218 13010101 		addi	sp,sp,16
 434              		.cfi_def_cfa_offset 0
 435 021c 67800000 		jr	ra
 436              	.LVL28:
 437              	.L25:
 438              		.cfi_restore_state
 439              	.LBB36:
GAS LISTING /tmp/ccgo6O8U.s 			page 14


  64:src/ThreadK.cpp ****         running->prevThread = nullptr;
 440              		.loc 1 64 9 is_stmt 1
  64:src/ThreadK.cpp ****         running->prevThread = nullptr;
 441              		.loc 1 64 28 is_stmt 0
 442 0220 2334A606 		sd	a0,104(a2)
  65:src/ThreadK.cpp ****         running->nextThread = nullptr;
 443              		.loc 1 65 9 is_stmt 1
  65:src/ThreadK.cpp ****         running->nextThread = nullptr;
 444              		.loc 1 65 29 is_stmt 0
 445 0224 23340602 		sd	zero,40(a2)
  66:src/ThreadK.cpp ****         sleepHead = running;
 446              		.loc 1 66 9 is_stmt 1
  66:src/ThreadK.cpp ****         sleepHead = running;
 447              		.loc 1 66 29 is_stmt 0
 448 0228 23300602 		sd	zero,32(a2)
  67:src/ThreadK.cpp ****     }
 449              		.loc 1 67 9 is_stmt 1
  67:src/ThreadK.cpp ****     }
 450              		.loc 1 67 19 is_stmt 0
 451 022c 97070000 		sd	a2,.LANCHOR0+16,a5
 451      23B0C700 
 452 0234 6FF01FFE 		j	.L17
 453              	.LVL29:
 454              	.L23:
 455              	.LBB35:
 456              	.LBB34:
 457              	.LBB33:
  86:src/ThreadK.cpp ****             }
 458              		.loc 1 86 32
 459 0238 93060700 		mv	a3,a4
 460              	.LVL30:
 461              	.L20:
  84:src/ThreadK.cpp ****                 tmp = tmp->nextThread;
 462              		.loc 1 84 13 is_stmt 1
  84:src/ThreadK.cpp ****                 tmp = tmp->nextThread;
 463              		.loc 1 84 36
 464 023c 93850700 		mv	a1,a5
  84:src/ThreadK.cpp ****                 tmp = tmp->nextThread;
 465              		.loc 1 84 25 is_stmt 0
 466 0240 83B70702 		ld	a5,32(a5)
 467              	.LVL31:
  84:src/ThreadK.cpp ****                 tmp = tmp->nextThread;
 468              		.loc 1 84 36
 469 0244 63880700 		beqz	a5,.L21
  84:src/ThreadK.cpp ****                 tmp = tmp->nextThread;
 470              		.loc 1 84 56 discriminator 1
 471 0248 03B78706 		ld	a4,104(a5)
  84:src/ThreadK.cpp ****                 tmp = tmp->nextThread;
 472              		.loc 1 84 66 discriminator 1
 473 024c 3307D700 		add	a4,a4,a3
  84:src/ThreadK.cpp ****                 tmp = tmp->nextThread;
 474              		.loc 1 84 36 discriminator 1
 475 0250 E374E5FE 		bleu	a4,a0,.L23
 476              	.L21:
  89:src/ThreadK.cpp ****             if(running->nextThread) running->nextThread->prevThread = running;
 477              		.loc 1 89 13 is_stmt 1
  89:src/ThreadK.cpp ****             if(running->nextThread) running->nextThread->prevThread = running;
GAS LISTING /tmp/ccgo6O8U.s 			page 15


 478              		.loc 1 89 33 is_stmt 0
 479 0254 2330F602 		sd	a5,32(a2)
 480              	.LVL32:
  90:src/ThreadK.cpp ****             tmp->nextThread = running;
 481              		.loc 1 90 13 is_stmt 1
 482 0258 63840700 		beqz	a5,.L22
  90:src/ThreadK.cpp ****             tmp->nextThread = running;
 483              		.loc 1 90 37 discriminator 1
  90:src/ThreadK.cpp ****             tmp->nextThread = running;
 484              		.loc 1 90 69 is_stmt 0 discriminator 1
 485 025c 23B4C702 		sd	a2,40(a5)
 486              	.L22:
  91:src/ThreadK.cpp ****             running->prevThread = tmp;
 487              		.loc 1 91 13 is_stmt 1
  91:src/ThreadK.cpp ****             running->prevThread = tmp;
 488              		.loc 1 91 29 is_stmt 0
 489 0260 23B0C502 		sd	a2,32(a1)
  92:src/ThreadK.cpp ****             running->sleepTime = time - timeOfSleepTmp;
 490              		.loc 1 92 13 is_stmt 1
  92:src/ThreadK.cpp ****             running->sleepTime = time - timeOfSleepTmp;
 491              		.loc 1 92 33 is_stmt 0
 492 0264 2334B602 		sd	a1,40(a2)
  93:src/ThreadK.cpp ****         }
 493              		.loc 1 93 13 is_stmt 1
  93:src/ThreadK.cpp ****         }
 494              		.loc 1 93 39 is_stmt 0
 495 0268 3305D540 		sub	a0,a0,a3
 496              	.LVL33:
  93:src/ThreadK.cpp ****         }
 497              		.loc 1 93 32
 498 026c 2334A606 		sd	a0,104(a2)
 499              	.LBE33:
 500              	.LBE34:
 501              	.LBE35:
 502              	.LBE36:
 503              		.loc 1 97 1
 504 0270 6FF05FFA 		j	.L17
 505              		.cfi_endproc
 506              	.LFE32:
 508              		.align	2
 509              		.globl	_ZN7ThreadK5awakeEv
 511              	_ZN7ThreadK5awakeEv:
 512              	.LFB33:
  98:src/ThreadK.cpp **** void ThreadK::awake() {
 513              		.loc 1 98 23 is_stmt 1
 514              		.cfi_startproc
  99:src/ThreadK.cpp ****     ThreadK* tmp = sleepHead;
 515              		.loc 1 99 5
 516              		.loc 1 99 14 is_stmt 0
 517 0274 17050000 		ld	a0,.LANCHOR0+16
 517      03350500 
 518              	.LVL34:
 100:src/ThreadK.cpp ****     while(tmp && tmp->sleepTime == 0){
 519              		.loc 1 100 5 is_stmt 1
 520              		.loc 1 100 15
 521 027c 630C0506 		beqz	a0,.L32
 522              		.loc 1 100 23 is_stmt 0
GAS LISTING /tmp/ccgo6O8U.s 			page 16


 523 0280 83378506 		ld	a5,104(a0)
 524              		.loc 1 100 15
 525 0284 63980706 		bnez	a5,.L32
  98:src/ThreadK.cpp **** void ThreadK::awake() {
 526              		.loc 1 98 23
 527 0288 130101FE 		addi	sp,sp,-32
 528              		.cfi_def_cfa_offset 32
 529 028c 233C1100 		sd	ra,24(sp)
 530 0290 23388100 		sd	s0,16(sp)
 531 0294 23349100 		sd	s1,8(sp)
 532              		.cfi_offset 1, -8
 533              		.cfi_offset 8, -16
 534              		.cfi_offset 9, -24
 535 0298 13040102 		addi	s0,sp,32
 536              		.cfi_def_cfa 8, 0
 537 029c 6F004003 		j	.L34
 538              	.LVL35:
 539              	.L28:
 540              	.LBB37:
 101:src/ThreadK.cpp ****         ThreadK* tmp2 = tmp->nextThread;
 102:src/ThreadK.cpp ****         if(tmp->nextThread) tmp->nextThread->prevThread = nullptr;
 103:src/ThreadK.cpp ****         sleepHead = tmp->nextThread;
 541              		.loc 1 103 9 is_stmt 1
 542              		.loc 1 103 26 is_stmt 0
 543 02a0 83370502 		ld	a5,32(a0)
 544              		.loc 1 103 19
 545 02a4 17070000 		sd	a5,.LANCHOR0+16,a4
 545      2330F700 
 104:src/ThreadK.cpp ****         tmp->prevThread = nullptr;
 546              		.loc 1 104 9 is_stmt 1
 547              		.loc 1 104 25 is_stmt 0
 548 02ac 23340502 		sd	zero,40(a0)
 105:src/ThreadK.cpp ****         tmp->nextThread = nullptr;
 549              		.loc 1 105 9 is_stmt 1
 550              		.loc 1 105 25 is_stmt 0
 551 02b0 23300502 		sd	zero,32(a0)
 106:src/ThreadK.cpp ****         tmp->onSleep = false;
 552              		.loc 1 106 9 is_stmt 1
 553              		.loc 1 106 22 is_stmt 0
 554 02b4 23090506 		sb	zero,114(a0)
 107:src/ThreadK.cpp ****         Scheduler::put(tmp);
 555              		.loc 1 107 9 is_stmt 1
 556              		.loc 1 107 23 is_stmt 0
 557 02b8 97000000 		call	_ZN9Scheduler3putEP7ThreadK@plt
 557      E7800000 
 558              	.LVL36:
 108:src/ThreadK.cpp ****         tmp = tmp2;
 559              		.loc 1 108 9 is_stmt 1
 560              		.loc 1 108 13 is_stmt 0
 561 02c0 13850400 		mv	a0,s1
 562              	.LBE37:
 100:src/ThreadK.cpp ****         ThreadK* tmp2 = tmp->nextThread;
 563              		.loc 1 100 5 is_stmt 1
 100:src/ThreadK.cpp ****         ThreadK* tmp2 = tmp->nextThread;
 564              		.loc 1 100 15
 565 02c4 638E0400 		beqz	s1,.L26
 100:src/ThreadK.cpp ****         ThreadK* tmp2 = tmp->nextThread;
GAS LISTING /tmp/ccgo6O8U.s 			page 17


 566              		.loc 1 100 23 is_stmt 0 discriminator 1
 567 02c8 83B78406 		ld	a5,104(s1)
 100:src/ThreadK.cpp ****         ThreadK* tmp2 = tmp->nextThread;
 568              		.loc 1 100 15 discriminator 1
 569 02cc 639A0700 		bnez	a5,.L26
 570              	.LVL37:
 571              	.L34:
 572              	.LBB38:
 101:src/ThreadK.cpp ****         if(tmp->nextThread) tmp->nextThread->prevThread = nullptr;
 573              		.loc 1 101 9 is_stmt 1
 101:src/ThreadK.cpp ****         if(tmp->nextThread) tmp->nextThread->prevThread = nullptr;
 574              		.loc 1 101 18 is_stmt 0
 575 02d0 83340502 		ld	s1,32(a0)
 576              	.LVL38:
 102:src/ThreadK.cpp ****         sleepHead = tmp->nextThread;
 577              		.loc 1 102 9 is_stmt 1
 578 02d4 E38604FC 		beqz	s1,.L28
 102:src/ThreadK.cpp ****         sleepHead = tmp->nextThread;
 579              		.loc 1 102 29 discriminator 1
 102:src/ThreadK.cpp ****         sleepHead = tmp->nextThread;
 580              		.loc 1 102 57 is_stmt 0 discriminator 1
 581 02d8 23B40402 		sd	zero,40(s1)
 582 02dc 6FF05FFC 		j	.L28
 583              	.LVL39:
 584              	.L26:
 585              	.LBE38:
 109:src/ThreadK.cpp ****     }
 110:src/ThreadK.cpp **** }
 586              		.loc 1 110 1
 587 02e0 83308101 		ld	ra,24(sp)
 588              		.cfi_restore 1
 589 02e4 03340101 		ld	s0,16(sp)
 590              		.cfi_restore 8
 591              		.cfi_def_cfa 2, 32
 592 02e8 83348100 		ld	s1,8(sp)
 593              		.cfi_restore 9
 594              	.LVL40:
 595 02ec 13010102 		addi	sp,sp,32
 596              		.cfi_def_cfa_offset 0
 597 02f0 67800000 		jr	ra
 598              	.LVL41:
 599              	.L32:
 600 02f4 67800000 		ret
 601              		.cfi_endproc
 602              	.LFE33:
 604              		.align	2
 605              		.globl	_ZN7ThreadK4joinEv
 607              	_ZN7ThreadK4joinEv:
 608              	.LFB34:
 111:src/ThreadK.cpp **** 
 112:src/ThreadK.cpp **** uint64 ThreadK ::userStackASM = OFFSETOF(ThreadK, userStack);
 113:src/ThreadK.cpp **** uint64 ThreadK ::kernelStackASM = OFFSETOF(ThreadK, kernelStack);
 114:src/ThreadK.cpp **** 
 115:src/ThreadK.cpp **** int ThreadK::join() {
 609              		.loc 1 115 21 is_stmt 1
 610              		.cfi_startproc
 611              	.LVL42:
GAS LISTING /tmp/ccgo6O8U.s 			page 18


 612 02f8 130101FF 		addi	sp,sp,-16
 613              		.cfi_def_cfa_offset 16
 614 02fc 23341100 		sd	ra,8(sp)
 615 0300 23308100 		sd	s0,0(sp)
 616              		.cfi_offset 1, -8
 617              		.cfi_offset 8, -16
 618 0304 13040101 		addi	s0,sp,16
 619              		.cfi_def_cfa 8, 0
 116:src/ThreadK.cpp ****     return this->thread_sem->wait();
 620              		.loc 1 116 5
 621              		.loc 1 116 18 is_stmt 0
 622 0308 03358507 		ld	a0,120(a0)
 623              	.LVL43:
 624              		.loc 1 116 35
 625 030c 83370500 		ld	a5,0(a0)
 626 0310 83B70701 		ld	a5,16(a5)
 627              		.loc 1 116 34
 628 0314 E7800700 		jalr	a5
 629              	.LVL44:
 117:src/ThreadK.cpp **** }
 630              		.loc 1 117 1
 631 0318 83308100 		ld	ra,8(sp)
 632              		.cfi_restore 1
 633 031c 03340100 		ld	s0,0(sp)
 634              		.cfi_restore 8
 635              		.cfi_def_cfa 2, 16
 636 0320 13010101 		addi	sp,sp,16
 637              		.cfi_def_cfa_offset 0
 638 0324 67800000 		jr	ra
 639              		.cfi_endproc
 640              	.LFE34:
 642              		.align	2
 643              		.globl	_ZN7ThreadKC2EPFvPvES0_Pmmbb
 645              	_ZN7ThreadKC2EPFvPvES0_Pmmbb:
 646              	.LFB36:
 118:src/ThreadK.cpp **** 
 119:src/ThreadK.cpp **** ThreadK::ThreadK(ThreadK::Body b, void *arg, uint64 *userStck, uint64 tSlice, bool sysThread, bool 
 647              		.loc 1 119 1 is_stmt 1
 648              		.cfi_startproc
 649              	.LVL45:
 650 0328 130101FB 		addi	sp,sp,-80
 651              		.cfi_def_cfa_offset 80
 652 032c 23341104 		sd	ra,72(sp)
 653 0330 23308104 		sd	s0,64(sp)
 654 0334 233C9102 		sd	s1,56(sp)
 655 0338 23382103 		sd	s2,48(sp)
 656 033c 23343103 		sd	s3,40(sp)
 657 0340 23304103 		sd	s4,32(sp)
 658 0344 233C5101 		sd	s5,24(sp)
 659 0348 23386101 		sd	s6,16(sp)
 660 034c 23347101 		sd	s7,8(sp)
 661              		.cfi_offset 1, -8
 662              		.cfi_offset 8, -16
 663              		.cfi_offset 9, -24
 664              		.cfi_offset 18, -32
 665              		.cfi_offset 19, -40
 666              		.cfi_offset 20, -48
GAS LISTING /tmp/ccgo6O8U.s 			page 19


 667              		.cfi_offset 21, -56
 668              		.cfi_offset 22, -64
 669              		.cfi_offset 23, -72
 670 0350 13040105 		addi	s0,sp,80
 671              		.cfi_def_cfa 8, 0
 672 0354 93040500 		mv	s1,a0
 673 0358 93890500 		mv	s3,a1
 674 035c 930B0600 		mv	s7,a2
 675 0360 13890600 		mv	s2,a3
 676 0364 130A0700 		mv	s4,a4
 677 0368 138B0700 		mv	s6,a5
 678 036c 930A0800 		mv	s5,a6
 679              	.LBB39:
 680              		.loc 1 119 110 is_stmt 0
 681 0370 23000506 		sb	zero,96(a0)
 682 0374 23340506 		sd	zero,104(a0)
 683 0378 23080506 		sb	zero,112(a0)
 684 037c 23090506 		sb	zero,114(a0)
 120:src/ThreadK.cpp ****     body = b;
 685              		.loc 1 120 5 is_stmt 1
 686              		.loc 1 120 10 is_stmt 0
 687 0380 2330B500 		sd	a1,0(a0)
 121:src/ThreadK.cpp ****     begKernel = kernelStack = (uint64*) MemoryAllocator::kmem_alloc(DEFAULT_STACK_SIZE*sizeof(uint6
 688              		.loc 1 121 5 is_stmt 1
 689              		.loc 1 121 68 is_stmt 0
 690 0384 37850000 		li	a0,32768
 691              	.LVL46:
 692 0388 97000000 		call	_ZN15MemoryAllocator10kmem_allocEm@plt
 692      E7800000 
 693              	.LVL47:
 694              		.loc 1 121 15
 695 0390 23B8A404 		sd	a0,80(s1)
 122:src/ThreadK.cpp ****     begUser = userStck;
 696              		.loc 1 122 5 is_stmt 1
 697              		.loc 1 122 13 is_stmt 0
 698 0394 23BC2405 		sd	s2,88(s1)
 123:src/ThreadK.cpp ****     kernelStack = &kernelStack[DEFAULT_STACK_SIZE];
 699              		.loc 1 123 5 is_stmt 1
 700              		.loc 1 123 19 is_stmt 0
 701 0398 B7870000 		li	a5,32768
 702 039c 3305F500 		add	a0,a0,a5
 703              		.loc 1 123 17
 704 03a0 23B0A404 		sd	a0,64(s1)
 124:src/ThreadK.cpp ****     userStack = (b != nullptr) ? &userStck[DEFAULT_STACK_SIZE] : 0;
 705              		.loc 1 124 5 is_stmt 1
 706              		.loc 1 124 32 is_stmt 0
 707 03a4 6384090A 		beqz	s3,.L43
 708              		.loc 1 124 32 discriminator 1
 709 03a8 B7860000 		li	a3,32768
 710 03ac B306D900 		add	a3,s2,a3
 711              	.L39:
 712              		.loc 1 124 15 discriminator 4
 713 03b0 23B4D404 		sd	a3,72(s1)
 125:src/ThreadK.cpp ****     context = {
 714              		.loc 1 125 5 is_stmt 1 discriminator 4
 715              		.loc 1 125 13 is_stmt 0 discriminator 4
 716 03b4 97070000 		lla	a5,_ZN7ThreadK13threadWrapperEv
GAS LISTING /tmp/ccgo6O8U.s 			page 20


 716      93870700 
 717 03bc 23B4F400 		sd	a5,8(s1)
 718 03c0 23B8D400 		sd	a3,16(s1)
 126:src/ThreadK.cpp ****             (uint64)&threadWrapper,
 127:src/ThreadK.cpp ****             userStack != nullptr ? (uint64)userStack : 0
 128:src/ThreadK.cpp ****     };
 129:src/ThreadK.cpp ****     timeSlice = (body==Scheduler::idle)?1:tSlice;
 719              		.loc 1 129 5 is_stmt 1 discriminator 4
 720              		.loc 1 129 18 is_stmt 0 discriminator 4
 721 03c4 03B70400 		ld	a4,0(s1)
 722              		.loc 1 129 40 discriminator 4
 723 03c8 97070000 		la	a5,_ZN9Scheduler4idleEPv
 723      83B70700 
 724 03d0 6302F708 		beq	a4,a5,.L47
 725              	.LVL48:
 726              	.L41:
 727              		.loc 1 129 15 discriminator 4
 728 03d4 23B84403 		sd	s4,48(s1)
 130:src/ThreadK.cpp ****     arguments = arg;
 729              		.loc 1 130 5 is_stmt 1 discriminator 4
 730              		.loc 1 130 15 is_stmt 0 discriminator 4
 731 03d8 23BC7403 		sd	s7,56(s1)
 131:src/ThreadK.cpp ****     finished = false;
 732              		.loc 1 131 5 is_stmt 1 discriminator 4
 733              		.loc 1 131 14 is_stmt 0 discriminator 4
 734 03dc 238C0400 		sb	zero,24(s1)
 132:src/ThreadK.cpp ****     nextThread = nullptr;
 735              		.loc 1 132 5 is_stmt 1 discriminator 4
 736              		.loc 1 132 16 is_stmt 0 discriminator 4
 737 03e0 23B00402 		sd	zero,32(s1)
 133:src/ThreadK.cpp ****     prevThread = nullptr;
 738              		.loc 1 133 5 is_stmt 1 discriminator 4
 739              		.loc 1 133 16 is_stmt 0 discriminator 4
 740 03e4 23B40402 		sd	zero,40(s1)
 134:src/ThreadK.cpp ****     systemThread = sysThread;
 741              		.loc 1 134 5 is_stmt 1 discriminator 4
 742              		.loc 1 134 18 is_stmt 0 discriminator 4
 743 03e8 A3886407 		sb	s6,113(s1)
 135:src/ThreadK.cpp ****     thread_sem = new SemaphoreK(0);
 744              		.loc 1 135 5 is_stmt 1 discriminator 4
 745              		.loc 1 135 34 is_stmt 0 discriminator 4
 746 03ec 13050002 		li	a0,32
 747 03f0 97000000 		call	_ZN10SemaphoreKnwEm@plt
 747      E7800000 
 748              	.LVL49:
 749              	.LBB40:
 750              	.LBB41:
 751              		.file 4 "src/../h/../h/../h/SemaphoreK.hpp"
   1:src/../h/../h/../h/SemaphoreK.hpp **** //
   2:src/../h/../h/../h/SemaphoreK.hpp **** // Created by os on 5/22/22.
   3:src/../h/../h/../h/SemaphoreK.hpp **** //
   4:src/../h/../h/../h/SemaphoreK.hpp **** 
   5:src/../h/../h/../h/SemaphoreK.hpp **** #ifndef PROJECT_BASE_V1_0_SEMAPHORE_HPP
   6:src/../h/../h/../h/SemaphoreK.hpp **** #define PROJECT_BASE_V1_0_SEMAPHORE_HPP
   7:src/../h/../h/../h/SemaphoreK.hpp **** 
   8:src/../h/../h/../h/SemaphoreK.hpp **** #include "../h/ThreadK.hpp"
   9:src/../h/../h/../h/SemaphoreK.hpp **** 
GAS LISTING /tmp/ccgo6O8U.s 			page 21


  10:src/../h/../h/../h/SemaphoreK.hpp **** class SemaphoreK {
  11:src/../h/../h/../h/SemaphoreK.hpp **** public:
  12:src/../h/../h/../h/SemaphoreK.hpp ****     SemaphoreK(int val = 1): value(val){}
 752              		.loc 4 12 39 discriminator 4
 753 03f8 97070000 		la	a5,_ZTV10SemaphoreK
 753      83B70700 
 754 0400 93870701 		addi	a5,a5,16
 755 0404 2330F500 		sd	a5,0(a0)
 756 0408 23240500 		sw	zero,8(a0)
 757 040c 23380500 		sd	zero,16(a0)
 758 0410 233C0500 		sd	zero,24(a0)
 759              	.LVL50:
 760              	.LBE41:
 761              	.LBE40:
 762              		.loc 1 135 16 discriminator 4
 763 0414 23BCA406 		sd	a0,120(s1)
 136:src/ThreadK.cpp ****     if(b != nullptr && !createOnly) Scheduler::put(this);
 764              		.loc 1 136 5 is_stmt 1 discriminator 4
 765 0418 63840900 		beqz	s3,.L38
 766              		.loc 1 136 21 is_stmt 0 discriminator 1
 767 041c 63800A04 		beqz	s5,.L48
 768              	.L38:
 769              	.LBE39:
 137:src/ThreadK.cpp **** }
 770              		.loc 1 137 1
 771 0420 83308104 		ld	ra,72(sp)
 772              		.cfi_remember_state
 773              		.cfi_restore 1
 774 0424 03340104 		ld	s0,64(sp)
 775              		.cfi_restore 8
 776              		.cfi_def_cfa 2, 80
 777 0428 83348103 		ld	s1,56(sp)
 778              		.cfi_restore 9
 779              	.LVL51:
 780 042c 03390103 		ld	s2,48(sp)
 781              		.cfi_restore 18
 782              	.LVL52:
 783 0430 83398102 		ld	s3,40(sp)
 784              		.cfi_restore 19
 785              	.LVL53:
 786 0434 033A0102 		ld	s4,32(sp)
 787              		.cfi_restore 20
 788 0438 833A8101 		ld	s5,24(sp)
 789              		.cfi_restore 21
 790 043c 033B0101 		ld	s6,16(sp)
 791              		.cfi_restore 22
 792 0440 833B8100 		ld	s7,8(sp)
 793              		.cfi_restore 23
 794              	.LVL54:
 795 0444 13010105 		addi	sp,sp,80
 796              		.cfi_def_cfa_offset 0
 797 0448 67800000 		jr	ra
 798              	.LVL55:
 799              	.L43:
 800              		.cfi_restore_state
 801              	.LBB42:
 124:src/ThreadK.cpp ****     context = {
GAS LISTING /tmp/ccgo6O8U.s 			page 22


 802              		.loc 1 124 32
 803 044c 93060000 		li	a3,0
 804 0450 6FF01FF6 		j	.L39
 805              	.L47:
 129:src/ThreadK.cpp ****     arguments = arg;
 806              		.loc 1 129 40
 807 0454 130A1000 		li	s4,1
 808              	.LVL56:
 809 0458 6FF0DFF7 		j	.L41
 810              	.L48:
 136:src/ThreadK.cpp **** }
 811              		.loc 1 136 37 is_stmt 1 discriminator 2
 136:src/ThreadK.cpp **** }
 812              		.loc 1 136 51 is_stmt 0 discriminator 2
 813 045c 13850400 		mv	a0,s1
 814 0460 97000000 		call	_ZN9Scheduler3putEP7ThreadK@plt
 814      E7800000 
 815              	.LVL57:
 816              	.LBE42:
 817              		.loc 1 137 1 discriminator 2
 818 0468 6FF09FFB 		j	.L38
 819              		.cfi_endproc
 820              	.LFE36:
 822              		.globl	_ZN7ThreadKC1EPFvPvES0_Pmmbb
 823              		.set	_ZN7ThreadKC1EPFvPvES0_Pmmbb,_ZN7ThreadKC2EPFvPvES0_Pmmbb
 824              		.align	2
 825              		.globl	_ZN7ThreadK12createThreadEPFvPvES0_Pmbb
 827              	_ZN7ThreadK12createThreadEPFvPvES0_Pmbb:
 828              	.LFB26:
  33:src/ThreadK.cpp ****     return new ThreadK(body, arg, userStck, DEFAULT_TIME_SLICE, sysThread, createOnly);
 829              		.loc 1 33 105 is_stmt 1
 830              		.cfi_startproc
 831              		.cfi_personality 0x9b,DW.ref.__gxx_personality_v0
 832              		.cfi_lsda 0x1b,.LLSDA26
 833              	.LVL58:
 834 046c 130101FC 		addi	sp,sp,-64
 835              		.cfi_def_cfa_offset 64
 836 0470 233C1102 		sd	ra,56(sp)
 837 0474 23388102 		sd	s0,48(sp)
 838 0478 23349102 		sd	s1,40(sp)
 839 047c 23302103 		sd	s2,32(sp)
 840 0480 233C3101 		sd	s3,24(sp)
 841 0484 23384101 		sd	s4,16(sp)
 842 0488 23345101 		sd	s5,8(sp)
 843 048c 23306101 		sd	s6,0(sp)
 844              		.cfi_offset 1, -8
 845              		.cfi_offset 8, -16
 846              		.cfi_offset 9, -24
 847              		.cfi_offset 18, -32
 848              		.cfi_offset 19, -40
 849              		.cfi_offset 20, -48
 850              		.cfi_offset 21, -56
 851              		.cfi_offset 22, -64
 852 0490 13040104 		addi	s0,sp,64
 853              		.cfi_def_cfa 8, 0
 854 0494 13090500 		mv	s2,a0
 855 0498 93890500 		mv	s3,a1
GAS LISTING /tmp/ccgo6O8U.s 			page 23


 856 049c 130A0600 		mv	s4,a2
 857 04a0 938A0600 		mv	s5,a3
 858 04a4 130B0700 		mv	s6,a4
  34:src/ThreadK.cpp **** }
 859              		.loc 1 34 5
  34:src/ThreadK.cpp **** }
 860              		.loc 1 34 86 is_stmt 0
 861 04a8 13050008 		li	a0,128
 862              	.LVL59:
 863              	.LEHB0:
 864 04ac 97000000 		call	_ZN7ThreadKnwEm
 864      E7800000 
 865              	.LVL60:
 866              	.LEHE0:
 867 04b4 93040500 		mv	s1,a0
 868 04b8 13080B00 		mv	a6,s6
 869 04bc 93870A00 		mv	a5,s5
 870 04c0 13072000 		li	a4,2
 871 04c4 93060A00 		mv	a3,s4
 872 04c8 13860900 		mv	a2,s3
 873 04cc 93050900 		mv	a1,s2
 874              	.LEHB1:
 875 04d0 97000000 		call	_ZN7ThreadKC1EPFvPvES0_Pmmbb
 875      E7800000 
 876              	.LVL61:
 877              	.LEHE1:
 878 04d8 6F000002 		j	.L54
 879              	.L51:
 880 04dc 13090500 		mv	s2,a0
 881              	.LVL62:
 882 04e0 13850400 		mv	a0,s1
 883 04e4 97000000 		call	_ZN7ThreadKdlEPv
 883      E7800000 
 884              	.LVL63:
 885 04ec 13050900 		mv	a0,s2
 886              	.LEHB2:
 887 04f0 97000000 		call	_Unwind_Resume@plt
 887      E7800000 
 888              	.LVL64:
 889              	.LEHE2:
 890              	.L54:
  35:src/ThreadK.cpp **** 
 891              		.loc 1 35 1
 892 04f8 13850400 		mv	a0,s1
 893 04fc 83308103 		ld	ra,56(sp)
 894              		.cfi_restore 1
 895 0500 03340103 		ld	s0,48(sp)
 896              		.cfi_restore 8
 897              		.cfi_def_cfa 2, 64
 898 0504 83348102 		ld	s1,40(sp)
 899              		.cfi_restore 9
 900 0508 03390102 		ld	s2,32(sp)
 901              		.cfi_restore 18
 902              	.LVL65:
 903 050c 83398101 		ld	s3,24(sp)
 904              		.cfi_restore 19
 905              	.LVL66:
GAS LISTING /tmp/ccgo6O8U.s 			page 24


 906 0510 033A0101 		ld	s4,16(sp)
 907              		.cfi_restore 20
 908              	.LVL67:
 909 0514 833A8100 		ld	s5,8(sp)
 910              		.cfi_restore 21
 911 0518 033B0100 		ld	s6,0(sp)
 912              		.cfi_restore 22
 913 051c 13010104 		addi	sp,sp,64
 914              		.cfi_def_cfa_offset 0
 915 0520 67800000 		jr	ra
 916              		.cfi_endproc
 917              	.LFE26:
 918              		.globl	__gxx_personality_v0
 919              		.section	.gcc_except_table,"a",@progbits
 920              	.LLSDA26:
 921 0000 FF       		.byte	0xff
 922 0001 FF       		.byte	0xff
 923 0002 03       		.byte	0x3
 924 0003 27       		.byte	0x27
 925 0004 00000000 		.4byte	.LEHB0-.LFB26
 926 0008 00000000 		.4byte	.LEHE0-.LEHB0
 927 000c 00000000 		.4byte	0
 928 0010 00       		.byte	0
 929 0011 00000000 		.4byte	.LEHB1-.LFB26
 930 0015 00000000 		.4byte	.LEHE1-.LEHB1
 931 0019 00000000 		.4byte	.L51-.LFB26
 932 001d 00       		.byte	0
 933 001e 00000000 		.4byte	.LEHB2-.LFB26
 934 0022 00000000 		.4byte	.LEHE2-.LEHB2
 935 0026 00000000 		.4byte	0
 936 002a 00       		.byte	0
 937              		.text
 939              		.align	2
 940              		.globl	_ZN7ThreadKD2Ev
 942              	_ZN7ThreadKD2Ev:
 943              	.LFB39:
 138:src/ThreadK.cpp **** 
 139:src/ThreadK.cpp **** ThreadK::~ThreadK() {
 944              		.loc 1 139 1 is_stmt 1
 945              		.cfi_startproc
 946              	.LVL68:
 947 0524 130101FE 		addi	sp,sp,-32
 948              		.cfi_def_cfa_offset 32
 949 0528 233C1100 		sd	ra,24(sp)
 950 052c 23388100 		sd	s0,16(sp)
 951 0530 23349100 		sd	s1,8(sp)
 952              		.cfi_offset 1, -8
 953              		.cfi_offset 8, -16
 954              		.cfi_offset 9, -24
 955 0534 13040102 		addi	s0,sp,32
 956              		.cfi_def_cfa 8, 0
 957 0538 93040500 		mv	s1,a0
 958              	.LBB43:
 140:src/ThreadK.cpp ****     if(body){
 959              		.loc 1 140 5
 960              		.loc 1 140 8 is_stmt 0
 961 053c 83370500 		ld	a5,0(a0)
GAS LISTING /tmp/ccgo6O8U.s 			page 25


 962              		.loc 1 140 5
 963 0540 638A0700 		beqz	a5,.L56
 141:src/ThreadK.cpp ****         delete begUser;
 964              		.loc 1 141 9 is_stmt 1
 965              		.loc 1 141 16 is_stmt 0
 966 0544 03358505 		ld	a0,88(a0)
 967              	.LVL69:
 968              		.loc 1 141 23
 969 0548 63060500 		beqz	a0,.L56
 970              		.loc 1 141 16 discriminator 1
 971 054c 97000000 		call	_ZdlPv@plt
 971      E7800000 
 972              	.LVL70:
 973              	.L56:
 142:src/ThreadK.cpp ****     }
 143:src/ThreadK.cpp ****     delete begKernel;
 974              		.loc 1 143 5 is_stmt 1
 975              		.loc 1 143 12 is_stmt 0
 976 0554 03B50405 		ld	a0,80(s1)
 977              		.loc 1 143 21
 978 0558 63060500 		beqz	a0,.L57
 979              		.loc 1 143 12 discriminator 1
 980 055c 97000000 		call	_ZdlPv@plt
 980      E7800000 
 981              	.LVL71:
 982              	.L57:
 144:src/ThreadK.cpp ****     delete thread_sem;
 983              		.loc 1 144 5 is_stmt 1
 984              		.loc 1 144 12 is_stmt 0
 985 0564 03B58407 		ld	a0,120(s1)
 986              		.loc 1 144 22
 987 0568 63080500 		beqz	a0,.L55
 988              		.loc 1 144 12 discriminator 1
 989 056c 83370500 		ld	a5,0(a0)
 990 0570 83B78700 		ld	a5,8(a5)
 991 0574 E7800700 		jalr	a5
 992              	.LVL72:
 993              	.L55:
 994              	.LBE43:
 145:src/ThreadK.cpp **** }
 995              		.loc 1 145 1
 996 0578 83308101 		ld	ra,24(sp)
 997              		.cfi_restore 1
 998 057c 03340101 		ld	s0,16(sp)
 999              		.cfi_restore 8
 1000              		.cfi_def_cfa 2, 32
 1001 0580 83348100 		ld	s1,8(sp)
 1002              		.cfi_restore 9
 1003              	.LVL73:
 1004 0584 13010102 		addi	sp,sp,32
 1005              		.cfi_def_cfa_offset 0
 1006 0588 67800000 		jr	ra
 1007              		.cfi_endproc
 1008              	.LFE39:
 1010              		.globl	_ZN7ThreadKD1Ev
 1011              		.set	_ZN7ThreadKD1Ev,_ZN7ThreadKD2Ev
 1012              		.align	2
GAS LISTING /tmp/ccgo6O8U.s 			page 26


 1013              		.globl	_ZN7ThreadK13deleteThreadsEv
 1015              	_ZN7ThreadK13deleteThreadsEv:
 1016              	.LFB41:
 146:src/ThreadK.cpp **** 
 147:src/ThreadK.cpp **** void ThreadK::deleteThreads() {
 1017              		.loc 1 147 31 is_stmt 1
 1018              		.cfi_startproc
 1019 058c 130101FE 		addi	sp,sp,-32
 1020              		.cfi_def_cfa_offset 32
 1021 0590 233C1100 		sd	ra,24(sp)
 1022 0594 23388100 		sd	s0,16(sp)
 1023 0598 23349100 		sd	s1,8(sp)
 1024              		.cfi_offset 1, -8
 1025              		.cfi_offset 8, -16
 1026              		.cfi_offset 9, -24
 1027 059c 13040102 		addi	s0,sp,32
 1028              		.cfi_def_cfa 8, 0
 1029              	.L62:
 148:src/ThreadK.cpp ****     while (finishedHead) {
 1030              		.loc 1 148 5
 1031              		.loc 1 148 12
 1032 05a0 97040000 		ld	s1,.LANCHOR0+24
 1032      83B40400 
 1033 05a8 638A0402 		beqz	s1,.L60
 1034              	.LBB44:
 149:src/ThreadK.cpp ****         ThreadK *tmp = finishedHead;
 1035              		.loc 1 149 9
 1036              	.LVL74:
 150:src/ThreadK.cpp ****         ThreadK::finishedHead = finishedHead->nextThread;
 1037              		.loc 1 150 9
 1038              		.loc 1 150 47 is_stmt 0
 1039 05ac 83B70402 		ld	a5,32(s1)
 1040              		.loc 1 150 31
 1041 05b0 17070000 		sd	a5,.LANCHOR0+24,a4
 1041      2330F700 
 151:src/ThreadK.cpp ****         tmp->nextThread = nullptr;
 1042              		.loc 1 151 9 is_stmt 1
 1043              		.loc 1 151 25 is_stmt 0
 1044 05b8 23B00402 		sd	zero,32(s1)
 152:src/ThreadK.cpp ****         delete tmp;
 1045              		.loc 1 152 9 is_stmt 1
 1046              		.loc 1 152 19 is_stmt 0
 1047 05bc E38204FE 		beqz	s1,.L62
 1048              		.loc 1 152 16 discriminator 1
 1049 05c0 13850400 		mv	a0,s1
 1050 05c4 97000000 		call	_ZN7ThreadKD1Ev
 1050      E7800000 
 1051              	.LVL75:
 1052 05cc 13850400 		mv	a0,s1
 1053 05d0 97000000 		call	_ZN7ThreadKdlEPv
 1053      E7800000 
 1054              	.LVL76:
 1055 05d8 6FF09FFC 		j	.L62
 1056              	.LVL77:
 1057              	.L60:
 1058              	.LBE44:
 153:src/ThreadK.cpp ****     }
GAS LISTING /tmp/ccgo6O8U.s 			page 27


 154:src/ThreadK.cpp **** }
 1059              		.loc 1 154 1
 1060 05dc 83308101 		ld	ra,24(sp)
 1061              		.cfi_restore 1
 1062 05e0 03340101 		ld	s0,16(sp)
 1063              		.cfi_restore 8
 1064              		.cfi_def_cfa 2, 32
 1065 05e4 83348100 		ld	s1,8(sp)
 1066              		.cfi_restore 9
 1067 05e8 13010102 		addi	sp,sp,32
 1068              		.cfi_def_cfa_offset 0
 1069 05ec 67800000 		jr	ra
 1070              		.cfi_endproc
 1071              	.LFE41:
 1073              		.align	2
 1074              		.globl	_ZN7ThreadK4killEv
 1076              	_ZN7ThreadK4killEv:
 1077              	.LFB42:
 155:src/ThreadK.cpp **** 
 156:src/ThreadK.cpp **** void ThreadK::kill() {
 1078              		.loc 1 156 22 is_stmt 1
 1079              		.cfi_startproc
 1080              	.LVL78:
 1081 05f0 130101FE 		addi	sp,sp,-32
 1082              		.cfi_def_cfa_offset 32
 1083 05f4 233C1100 		sd	ra,24(sp)
 1084 05f8 23388100 		sd	s0,16(sp)
 1085 05fc 23349100 		sd	s1,8(sp)
 1086              		.cfi_offset 1, -8
 1087              		.cfi_offset 8, -16
 1088              		.cfi_offset 9, -24
 1089 0600 13040102 		addi	s0,sp,32
 1090              		.cfi_def_cfa 8, 0
 1091 0604 93040500 		mv	s1,a0
 157:src/ThreadK.cpp ****     this->setFinished(true);
 1092              		.loc 1 157 5
 1093              	.LVL79:
 1094              	.LBB45:
 1095              	.LBB46:
  25:src/../h/ThreadK.hpp ****     }
  26:src/../h/ThreadK.hpp **** 
  27:src/../h/ThreadK.hpp ****     void setFinished(bool finished) {
  28:src/../h/ThreadK.hpp ****         ThreadK::finished = finished;
 1096              		.loc 2 28 9
 1097              		.loc 2 28 27 is_stmt 0
 1098 0608 93071000 		li	a5,1
 1099 060c 230CF500 		sb	a5,24(a0)
 1100              	.LVL80:
 1101              	.LBE46:
 1102              	.LBE45:
 158:src/ThreadK.cpp ****     if(this->thread_sem->getValue() < 0)
 1103              		.loc 1 158 5 is_stmt 1
 1104              		.loc 1 158 14 is_stmt 0
 1105 0610 03358507 		ld	a0,120(a0)
 1106              	.LVL81:
 1107              	.LBB47:
 1108              	.LBB48:
GAS LISTING /tmp/ccgo6O8U.s 			page 28


  13:src/../h/../h/../h/SemaphoreK.hpp ****     virtual ~SemaphoreK();
  14:src/../h/../h/../h/SemaphoreK.hpp ****     int getValue() const{
  15:src/../h/../h/../h/SemaphoreK.hpp ****         return value;
 1109              		.loc 4 15 9 is_stmt 1
 1110              		.loc 4 15 16 is_stmt 0
 1111 0614 83278500 		lw	a5,8(a0)
 1112              	.LVL82:
 1113              	.LBE48:
 1114              	.LBE47:
 1115              		.loc 1 158 5
 1116 0618 63CC0702 		bltz	a5,.L70
 1117              	.L66:
 159:src/ThreadK.cpp ****         this->thread_sem->signal();
 160:src/ThreadK.cpp ****     if(ThreadK::finishedHead){
 1118              		.loc 1 160 5 is_stmt 1
 1119              		.loc 1 160 29 is_stmt 0
 1120 061c 97070000 		ld	a5,.LANCHOR0+24
 1120      83B70700 
 1121              		.loc 1 160 5
 1122 0624 638E0702 		beqz	a5,.L67
 161:src/ThreadK.cpp ****         ThreadK::finishedTail = ThreadK::finishedTail->nextThread = this;
 1123              		.loc 1 161 9 is_stmt 1
 1124              		.loc 1 161 56 is_stmt 0
 1125 0628 97070000 		lla	a5,.LANCHOR0
 1125      93870700 
 1126 0630 03B70702 		ld	a4,32(a5)
 1127              		.loc 1 161 67
 1128 0634 23309702 		sd	s1,32(a4)
 1129              		.loc 1 161 31
 1130 0638 23B09702 		sd	s1,32(a5)
 1131              	.L65:
 162:src/ThreadK.cpp ****     }
 163:src/ThreadK.cpp ****     else{
 164:src/ThreadK.cpp ****         ThreadK::finishedHead = ThreadK::finishedTail = this;
 165:src/ThreadK.cpp ****     }
 166:src/ThreadK.cpp **** }
 1132              		.loc 1 166 1
 1133 063c 83308101 		ld	ra,24(sp)
 1134              		.cfi_remember_state
 1135              		.cfi_restore 1
 1136 0640 03340101 		ld	s0,16(sp)
 1137              		.cfi_restore 8
 1138              		.cfi_def_cfa 2, 32
 1139 0644 83348100 		ld	s1,8(sp)
 1140              		.cfi_restore 9
 1141              	.LVL83:
 1142 0648 13010102 		addi	sp,sp,32
 1143              		.cfi_def_cfa_offset 0
 1144 064c 67800000 		jr	ra
 1145              	.LVL84:
 1146              	.L70:
 1147              		.cfi_restore_state
 159:src/ThreadK.cpp ****     if(ThreadK::finishedHead){
 1148              		.loc 1 159 9 is_stmt 1
 159:src/ThreadK.cpp ****     if(ThreadK::finishedHead){
 1149              		.loc 1 159 34 is_stmt 0
 1150 0650 83370500 		ld	a5,0(a0)
GAS LISTING /tmp/ccgo6O8U.s 			page 29


 1151 0654 83B78701 		ld	a5,24(a5)
 159:src/ThreadK.cpp ****     if(ThreadK::finishedHead){
 1152              		.loc 1 159 33
 1153 0658 E7800700 		jalr	a5
 1154              	.LVL85:
 1155 065c 6FF01FFC 		j	.L66
 1156              	.L67:
 164:src/ThreadK.cpp ****     }
 1157              		.loc 1 164 9 is_stmt 1
 164:src/ThreadK.cpp ****     }
 1158              		.loc 1 164 55 is_stmt 0
 1159 0660 97070000 		lla	a5,.LANCHOR0
 1159      93870700 
 1160 0668 23B09702 		sd	s1,32(a5)
 164:src/ThreadK.cpp ****     }
 1161              		.loc 1 164 31
 1162 066c 23BC9700 		sd	s1,24(a5)
 1163              		.loc 1 166 1
 1164 0670 6FF0DFFC 		j	.L65
 1165              		.cfi_endproc
 1166              	.LFE42:
 1168              		.globl	_ZN7ThreadK14kernelStackASME
 1169              		.globl	_ZN7ThreadK12userStackASME
 1170              		.globl	_ZN7ThreadK16timeSliceCounterE
 1171              		.globl	_ZN7ThreadK12finishedTailE
 1172              		.globl	_ZN7ThreadK12finishedHeadE
 1173              		.globl	_ZN7ThreadK9sleepHeadE
 1174              		.globl	_ZN7ThreadK7runningE
 1175              		.data
 1176              		.align	3
 1179              	_ZN7ThreadK14kernelStackASME:
 1180 0000 40000000 		.dword	64
 1180      00000000 
 1183              	_ZN7ThreadK12userStackASME:
 1184 0008 48000000 		.dword	72
 1184      00000000 
 1185              		.bss
 1186              		.align	3
 1187              		.set	.LANCHOR0,. + 0
 1190              	_ZN7ThreadK7runningE:
 1191 0000 00000000 		.zero	8
 1191      00000000 
 1194              	_ZN7ThreadK16timeSliceCounterE:
 1195 0008 00000000 		.zero	8
 1195      00000000 
 1198              	_ZN7ThreadK9sleepHeadE:
 1199 0010 00000000 		.zero	8
 1199      00000000 
 1202              	_ZN7ThreadK12finishedHeadE:
 1203 0018 00000000 		.zero	8
 1203      00000000 
 1206              	_ZN7ThreadK12finishedTailE:
 1207 0020 00000000 		.zero	8
 1207      00000000 
 1208              		.text
 1209              	.Letext0:
 1210              		.file 5 "src/../h/../lib/hw.h"
GAS LISTING /tmp/ccgo6O8U.s 			page 30


 1211              		.file 6 "src/../h/../h/../h/MemoryAllocator.hpp"
 1212              		.file 7 "src/../h/../h/Scheduler.hpp"
 1213              		.file 8 "src/../h/../h/syscall_c.h"
 5521              		.align	3
 5524              	DW.ref.__gxx_personality_v0:
 5525 0000 00000000 		.dword	__gxx_personality_v0
 5525      00000000 
 5526              		.ident	"GCC: (Ubuntu 9.4.0-1ubuntu1~20.04) 9.4.0"
 5527              		.section	.note.GNU-stack,"",@progbits
GAS LISTING /tmp/ccgo6O8U.s 			page 31

